	.text
	.syntax unified
	.eabi_attribute	67, "2.09"	@ Tag_conformance
	.cpu	cortex-m4
	.eabi_attribute	6, 13	@ Tag_CPU_arch
	.eabi_attribute	7, 77	@ Tag_CPU_arch_profile
	.eabi_attribute	8, 0	@ Tag_ARM_ISA_use
	.eabi_attribute	9, 2	@ Tag_THUMB_ISA_use
	.fpu	fpv4-sp-d16
	.eabi_attribute	27, 1	@ Tag_ABI_HardFP_use
	.eabi_attribute	36, 1	@ Tag_FP_HP_extension
	.eabi_attribute	34, 1	@ Tag_CPU_unaligned_access
	.eabi_attribute	17, 1	@ Tag_ABI_PCS_GOT_use
	.eabi_attribute	20, 2	@ Tag_ABI_FP_denormal
	.eabi_attribute	21, 0	@ Tag_ABI_FP_exceptions
	.eabi_attribute	23, 1	@ Tag_ABI_FP_number_model
	.eabi_attribute	24, 1	@ Tag_ABI_align_needed
	.eabi_attribute	25, 1	@ Tag_ABI_align_preserved
	.eabi_attribute	28, 1	@ Tag_ABI_VFP_args
	.eabi_attribute	38, 1	@ Tag_ABI_FP_16bit_format
	.eabi_attribute	18, 2	@ Tag_ABI_PCS_wchar_t
	.eabi_attribute	26, 1	@ Tag_ABI_enum_size
	.eabi_attribute	14, 0	@ Tag_ABI_PCS_R9_use
	.file	"ADCSWTrigger.c"
	.file	1 "C:\\" "Keil_v5\\ARM\\ARMCLANG\\Bin\\..\\include\\stdint.h"
	.file	2 "C:\\Users\\kcao3\\OneDrive\\Documents\\445L\\EE445L-SP22-Lab-4\\SW" "inc/ADCSWTrigger.c"
	.section	.text.ADC0_InitSWTriggerSeq3_Ch9,"ax",%progbits
	.hidden	ADC0_InitSWTriggerSeq3_Ch9 @ -- Begin function ADC0_InitSWTriggerSeq3_Ch9
	.globl	ADC0_InitSWTriggerSeq3_Ch9
	.p2align	2
	.type	ADC0_InitSWTriggerSeq3_Ch9,%function
	.code	16                      @ @ADC0_InitSWTriggerSeq3_Ch9
	.thumb_func
ADC0_InitSWTriggerSeq3_Ch9:
.Lfunc_begin0:
	.loc	2 60 0                  @ inc/ADCSWTrigger.c:60:0
	.fnstart
	.cfi_sections .debug_frame
	.cfi_startproc
@ %bb.0:
	movw	r0, #58936
	movt	r0, #16399
.Ltmp0:
	.loc	2 61 20 prologue_end    @ inc/ADCSWTrigger.c:61:20
	ldr	r1, [r0]
	orr	r1, r1, #1
	str	r1, [r0]
	movw	r0, #58888
	movt	r0, #16399
	.loc	2 63 21                 @ inc/ADCSWTrigger.c:63:21
	ldr	r1, [r0]
	orr	r1, r1, #16
	str	r1, [r0]
	.loc	2 64 3                  @ inc/ADCSWTrigger.c:64:3
	b	.LBB0_1
.LBB0_1:                                @ =>This Inner Loop Header: Depth=1
	.loc	2 0 3 is_stmt 0         @ inc/ADCSWTrigger.c:0:3
	movw	r0, #59912
	movt	r0, #16399
	.loc	2 64 10                 @ inc/ADCSWTrigger.c:64:10
	ldr	r0, [r0]
	.loc	2 64 25                 @ inc/ADCSWTrigger.c:64:25
	and	r0, r0, #16
	.loc	2 64 3                  @ inc/ADCSWTrigger.c:64:3
	cmp	r0, #16
	beq	.LBB0_3
	b	.LBB0_2
.LBB0_2:                                @   in Loop: Header=BB0_1 Depth=1
	b	.LBB0_1
.LBB0_3:
	.loc	2 0 3                   @ inc/ADCSWTrigger.c:0:3
	movw	r0, #17408
	movt	r0, #16386
	.loc	2 65 20 is_stmt 1       @ inc/ADCSWTrigger.c:65:20
	ldr	r1, [r0]
	bic	r1, r1, #16
	str	r1, [r0]
	movw	r0, #17440
	movt	r0, #16386
	.loc	2 66 22                 @ inc/ADCSWTrigger.c:66:22
	ldr	r1, [r0]
	orr	r1, r1, #16
	str	r1, [r0]
	movw	r0, #17692
	movt	r0, #16386
	.loc	2 67 20                 @ inc/ADCSWTrigger.c:67:20
	ldr	r1, [r0]
	bic	r1, r1, #16
	str	r1, [r0]
	movw	r0, #17704
	movt	r0, #16386
	.loc	2 68 22                 @ inc/ADCSWTrigger.c:68:22
	ldr	r1, [r0]
	orr	r1, r1, #16
	str	r1, [r0]
	.loc	2 70 3                  @ inc/ADCSWTrigger.c:70:3
	b	.LBB0_4
.LBB0_4:                                @ =>This Inner Loop Header: Depth=1
	.loc	2 0 3 is_stmt 0         @ inc/ADCSWTrigger.c:0:3
	movw	r0, #59960
	movt	r0, #16399
	.loc	2 70 10                 @ inc/ADCSWTrigger.c:70:10
	ldr	r0, [r0]
	.loc	2 70 3                  @ inc/ADCSWTrigger.c:70:3
	lsls	r0, r0, #31
	cmp	r0, #0
	bne	.LBB0_6
	b	.LBB0_5
.LBB0_5:                                @   in Loop: Header=BB0_4 Depth=1
	b	.LBB0_4
.LBB0_6:
	.loc	2 0 3                   @ inc/ADCSWTrigger.c:0:3
	movw	r0, #36804
	movt	r0, #16387
	.loc	2 73 13 is_stmt 1       @ inc/ADCSWTrigger.c:73:13
	ldr	r1, [r0]
	bic	r1, r1, #15
	str	r1, [r0]
	.loc	2 74 13                 @ inc/ADCSWTrigger.c:74:13
	ldr	r1, [r0]
	orr	r1, r1, #1
	str	r1, [r0]
	movw	r0, #32800
	movt	r0, #16387
	movw	r1, #291
	.loc	2 75 16                 @ inc/ADCSWTrigger.c:75:16
	str	r1, [r0]
	movw	r0, #32768
	movt	r0, #16387
	.loc	2 76 16                 @ inc/ADCSWTrigger.c:76:16
	ldr	r1, [r0]
	bic	r1, r1, #8
	str	r1, [r0]
	movw	r1, #32788
	movt	r1, #16387
	.loc	2 77 15                 @ inc/ADCSWTrigger.c:77:15
	ldr	r2, [r1]
	bic	r2, r2, #61440
	str	r2, [r1]
	movw	r1, #32928
	movt	r1, #16387
	.loc	2 78 17                 @ inc/ADCSWTrigger.c:78:17
	ldr	r2, [r1]
	bic	r2, r2, #15
	str	r2, [r1]
	.loc	2 79 17                 @ inc/ADCSWTrigger.c:79:17
	ldr	r2, [r1]
	adds	r2, #9
	str	r2, [r1]
	movw	r1, #32932
	movt	r1, #16387
	movs	r2, #6
	.loc	2 80 17                 @ inc/ADCSWTrigger.c:80:17
	str	r2, [r1]
	movw	r1, #32776
	movt	r1, #16387
	.loc	2 81 13                 @ inc/ADCSWTrigger.c:81:13
	ldr	r2, [r1]
	bic	r2, r2, #8
	str	r2, [r1]
	.loc	2 82 16                 @ inc/ADCSWTrigger.c:82:16
	ldr	r1, [r0]
	orr	r1, r1, #8
	str	r1, [r0]
	.loc	2 83 1                  @ inc/ADCSWTrigger.c:83:1
	bx	lr
.Ltmp1:
.Lfunc_end0:
	.size	ADC0_InitSWTriggerSeq3_Ch9, .Lfunc_end0-ADC0_InitSWTriggerSeq3_Ch9
	.cfi_endproc
	.cantunwind
	.fnend
                                        @ -- End function
	.section	.text.ADC0_InitSWTriggerSeq3_Ch7,"ax",%progbits
	.hidden	ADC0_InitSWTriggerSeq3_Ch7 @ -- Begin function ADC0_InitSWTriggerSeq3_Ch7
	.globl	ADC0_InitSWTriggerSeq3_Ch7
	.p2align	2
	.type	ADC0_InitSWTriggerSeq3_Ch7,%function
	.code	16                      @ @ADC0_InitSWTriggerSeq3_Ch7
	.thumb_func
ADC0_InitSWTriggerSeq3_Ch7:
.Lfunc_begin1:
	.loc	2 86 0                  @ inc/ADCSWTrigger.c:86:0
	.fnstart
	.cfi_startproc
@ %bb.0:
	movw	r0, #58936
	movt	r0, #16399
.Ltmp2:
	.loc	2 87 20 prologue_end    @ inc/ADCSWTrigger.c:87:20
	ldr	r1, [r0]
	orr	r1, r1, #1
	str	r1, [r0]
	movw	r0, #58888
	movt	r0, #16399
	.loc	2 89 21                 @ inc/ADCSWTrigger.c:89:21
	ldr	r1, [r0]
	orr	r1, r1, #8
	str	r1, [r0]
	.loc	2 90 3                  @ inc/ADCSWTrigger.c:90:3
	b	.LBB1_1
.LBB1_1:                                @ =>This Inner Loop Header: Depth=1
	.loc	2 0 3 is_stmt 0         @ inc/ADCSWTrigger.c:0:3
	movw	r0, #59912
	movt	r0, #16399
	.loc	2 90 10                 @ inc/ADCSWTrigger.c:90:10
	ldr	r0, [r0]
	.loc	2 90 25                 @ inc/ADCSWTrigger.c:90:25
	and	r0, r0, #8
	.loc	2 90 3                  @ inc/ADCSWTrigger.c:90:3
	cmp	r0, #8
	beq	.LBB1_3
	b	.LBB1_2
.LBB1_2:                                @   in Loop: Header=BB1_1 Depth=1
	b	.LBB1_1
.LBB1_3:
	.loc	2 0 3                   @ inc/ADCSWTrigger.c:0:3
	movw	r0, #29696
	movt	r0, #16384
	.loc	2 91 20 is_stmt 1       @ inc/ADCSWTrigger.c:91:20
	ldr	r1, [r0]
	bic	r1, r1, #1
	str	r1, [r0]
	movw	r0, #29728
	movt	r0, #16384
	.loc	2 92 22                 @ inc/ADCSWTrigger.c:92:22
	ldr	r1, [r0]
	orr	r1, r1, #1
	str	r1, [r0]
	movw	r0, #29980
	movt	r0, #16384
	.loc	2 93 20                 @ inc/ADCSWTrigger.c:93:20
	ldr	r1, [r0]
	bic	r1, r1, #1
	str	r1, [r0]
	movw	r0, #29992
	movt	r0, #16384
	.loc	2 94 22                 @ inc/ADCSWTrigger.c:94:22
	ldr	r1, [r0]
	orr	r1, r1, #1
	str	r1, [r0]
	.loc	2 96 3                  @ inc/ADCSWTrigger.c:96:3
	b	.LBB1_4
.LBB1_4:                                @ =>This Inner Loop Header: Depth=1
	.loc	2 0 3 is_stmt 0         @ inc/ADCSWTrigger.c:0:3
	movw	r0, #59960
	movt	r0, #16399
	.loc	2 96 10                 @ inc/ADCSWTrigger.c:96:10
	ldr	r0, [r0]
	.loc	2 96 3                  @ inc/ADCSWTrigger.c:96:3
	lsls	r0, r0, #31
	cmp	r0, #0
	bne	.LBB1_6
	b	.LBB1_5
.LBB1_5:                                @   in Loop: Header=BB1_4 Depth=1
	b	.LBB1_4
.LBB1_6:
	.loc	2 0 3                   @ inc/ADCSWTrigger.c:0:3
	movw	r0, #36804
	movt	r0, #16387
	.loc	2 99 13 is_stmt 1       @ inc/ADCSWTrigger.c:99:13
	ldr	r1, [r0]
	bic	r1, r1, #15
	str	r1, [r0]
	.loc	2 100 13                @ inc/ADCSWTrigger.c:100:13
	ldr	r1, [r0]
	orr	r1, r1, #1
	str	r1, [r0]
	movw	r0, #32800
	movt	r0, #16387
	movw	r1, #291
	.loc	2 101 16                @ inc/ADCSWTrigger.c:101:16
	str	r1, [r0]
	movw	r0, #32768
	movt	r0, #16387
	.loc	2 102 16                @ inc/ADCSWTrigger.c:102:16
	ldr	r1, [r0]
	bic	r1, r1, #8
	str	r1, [r0]
	movw	r1, #32788
	movt	r1, #16387
	.loc	2 103 15                @ inc/ADCSWTrigger.c:103:15
	ldr	r2, [r1]
	bic	r2, r2, #61440
	str	r2, [r1]
	movw	r1, #32928
	movt	r1, #16387
	.loc	2 104 17                @ inc/ADCSWTrigger.c:104:17
	ldr	r2, [r1]
	bic	r2, r2, #15
	str	r2, [r1]
	.loc	2 105 17                @ inc/ADCSWTrigger.c:105:17
	ldr	r2, [r1]
	adds	r2, #7
	str	r2, [r1]
	movw	r1, #32932
	movt	r1, #16387
	movs	r2, #6
	.loc	2 106 17                @ inc/ADCSWTrigger.c:106:17
	str	r2, [r1]
	movw	r1, #32776
	movt	r1, #16387
	.loc	2 107 13                @ inc/ADCSWTrigger.c:107:13
	ldr	r2, [r1]
	bic	r2, r2, #8
	str	r2, [r1]
	.loc	2 108 16                @ inc/ADCSWTrigger.c:108:16
	ldr	r1, [r0]
	orr	r1, r1, #8
	str	r1, [r0]
	.loc	2 109 1                 @ inc/ADCSWTrigger.c:109:1
	bx	lr
.Ltmp3:
.Lfunc_end1:
	.size	ADC0_InitSWTriggerSeq3_Ch7, .Lfunc_end1-ADC0_InitSWTriggerSeq3_Ch7
	.cfi_endproc
	.cantunwind
	.fnend
                                        @ -- End function
	.section	.text.ADC0_InitSWTriggerSeq3,"ax",%progbits
	.hidden	ADC0_InitSWTriggerSeq3  @ -- Begin function ADC0_InitSWTriggerSeq3
	.globl	ADC0_InitSWTriggerSeq3
	.p2align	2
	.type	ADC0_InitSWTriggerSeq3,%function
	.code	16                      @ @ADC0_InitSWTriggerSeq3
	.thumb_func
ADC0_InitSWTriggerSeq3:
.Lfunc_begin2:
	.loc	2 123 0                 @ inc/ADCSWTrigger.c:123:0
	.fnstart
	.cfi_startproc
@ %bb.0:
	.pad	#16
	sub	sp, #16
	.cfi_def_cfa_offset 16
	mov	r1, r0
	strb.w	r0, [sp, #15]
.Ltmp4:
	.loc	2 124 10 prologue_end   @ inc/ADCSWTrigger.c:124:10
	ldrb.w	r0, [sp, #15]
	.loc	2 124 3 is_stmt 0       @ inc/ADCSWTrigger.c:124:3
	mov	r2, r0
	cmp	r0, #4
	str	r2, [sp, #4]            @ 4-byte Spill
	blo	.LBB2_4
	b	.LBB2_1
.LBB2_1:
	ldr	r0, [sp, #4]            @ 4-byte Reload
	subs	r1, r0, #4
	cmp	r1, #4
	blo	.LBB2_5
	b	.LBB2_2
.LBB2_2:
	ldr	r0, [sp, #4]            @ 4-byte Reload
	sub.w	r1, r0, #8
	cmp	r1, #2
	blo	.LBB2_4
	b	.LBB2_3
.LBB2_3:
	ldr	r0, [sp, #4]            @ 4-byte Reload
	sub.w	r1, r0, #10
	cmp	r1, #2
	blo	.LBB2_6
	b	.LBB2_7
.LBB2_4:
	.loc	2 0 3                   @ inc/ADCSWTrigger.c:0:3
	movw	r0, #58888
	movt	r0, #16399
.Ltmp5:
	.loc	2 131 25 is_stmt 1      @ inc/ADCSWTrigger.c:131:25
	ldr	r1, [r0]
	orr	r1, r1, #16
	str	r1, [r0]
	.loc	2 131 48 is_stmt 0      @ inc/ADCSWTrigger.c:131:48
	b	.LBB2_8
.LBB2_5:
	.loc	2 0 48                  @ inc/ADCSWTrigger.c:0:48
	movw	r0, #58888
	movt	r0, #16399
	.loc	2 136 25 is_stmt 1      @ inc/ADCSWTrigger.c:136:25
	ldr	r1, [r0]
	orr	r1, r1, #8
	str	r1, [r0]
	.loc	2 136 48 is_stmt 0      @ inc/ADCSWTrigger.c:136:48
	b	.LBB2_8
.LBB2_6:
	.loc	2 0 48                  @ inc/ADCSWTrigger.c:0:48
	movw	r0, #58888
	movt	r0, #16399
	.loc	2 139 25 is_stmt 1      @ inc/ADCSWTrigger.c:139:25
	ldr	r1, [r0]
	orr	r1, r1, #2
	str	r1, [r0]
	.loc	2 139 48 is_stmt 0      @ inc/ADCSWTrigger.c:139:48
	b	.LBB2_8
.LBB2_7:
	.loc	2 140 14 is_stmt 1      @ inc/ADCSWTrigger.c:140:14
	b	.LBB2_27
.Ltmp6:
.LBB2_8:
	.loc	2 0 14 is_stmt 0        @ inc/ADCSWTrigger.c:0:14
	movw	r0, #58888
	movt	r0, #16399
	.loc	2 142 11 is_stmt 1      @ inc/ADCSWTrigger.c:142:11
	ldr	r1, [r0]
	.loc	2 142 9 is_stmt 0       @ inc/ADCSWTrigger.c:142:9
	str	r1, [sp, #8]
	.loc	2 143 11 is_stmt 1      @ inc/ADCSWTrigger.c:143:11
	ldr	r1, [r0]
	.loc	2 143 9 is_stmt 0       @ inc/ADCSWTrigger.c:143:9
	str	r1, [sp, #8]
	.loc	2 144 11 is_stmt 1      @ inc/ADCSWTrigger.c:144:11
	ldr	r1, [r0]
	.loc	2 144 9 is_stmt 0       @ inc/ADCSWTrigger.c:144:9
	str	r1, [sp, #8]
	.loc	2 145 11 is_stmt 1      @ inc/ADCSWTrigger.c:145:11
	ldr	r0, [r0]
	.loc	2 145 9 is_stmt 0       @ inc/ADCSWTrigger.c:145:9
	str	r0, [sp, #8]
	.loc	2 146 10 is_stmt 1      @ inc/ADCSWTrigger.c:146:10
	ldrb.w	r0, [sp, #15]
	.loc	2 146 3 is_stmt 0       @ inc/ADCSWTrigger.c:146:3
	mov	r1, r0
	cmp	r0, #11
	str	r1, [sp]                @ 4-byte Spill
	bhi.w	.LBB2_23
@ %bb.9:
	.loc	2 0 3                   @ inc/ADCSWTrigger.c:0:3
	ldr	r1, [sp]                @ 4-byte Reload
.LCPI2_0:
	tbh	[pc, r1, lsl #1]
@ %bb.10:
.LJTI2_0:
	.short	(.LBB2_11-(.LCPI2_0+4))/2
	.short	(.LBB2_12-(.LCPI2_0+4))/2
	.short	(.LBB2_13-(.LCPI2_0+4))/2
	.short	(.LBB2_14-(.LCPI2_0+4))/2
	.short	(.LBB2_15-(.LCPI2_0+4))/2
	.short	(.LBB2_16-(.LCPI2_0+4))/2
	.short	(.LBB2_17-(.LCPI2_0+4))/2
	.short	(.LBB2_18-(.LCPI2_0+4))/2
	.short	(.LBB2_19-(.LCPI2_0+4))/2
	.short	(.LBB2_20-(.LCPI2_0+4))/2
	.short	(.LBB2_21-(.LCPI2_0+4))/2
	.short	(.LBB2_22-(.LCPI2_0+4))/2
	.p2align	1
.LBB2_11:
	movw	r0, #17408
	movt	r0, #16386
.Ltmp7:
	.loc	2 148 24 is_stmt 1      @ inc/ADCSWTrigger.c:148:24
	ldr	r1, [r0]
	bic	r1, r1, #8
	str	r1, [r0]
	movw	r0, #17440
	movt	r0, #16386
	.loc	2 149 26                @ inc/ADCSWTrigger.c:149:26
	ldr	r1, [r0]
	orr	r1, r1, #8
	str	r1, [r0]
	movw	r0, #17692
	movt	r0, #16386
	.loc	2 150 24                @ inc/ADCSWTrigger.c:150:24
	ldr	r1, [r0]
	bic	r1, r1, #8
	str	r1, [r0]
	movw	r0, #17704
	movt	r0, #16386
	.loc	2 151 26                @ inc/ADCSWTrigger.c:151:26
	ldr	r1, [r0]
	orr	r1, r1, #8
	str	r1, [r0]
	.loc	2 152 7                 @ inc/ADCSWTrigger.c:152:7
	b	.LBB2_23
.LBB2_12:
	.loc	2 0 7 is_stmt 0         @ inc/ADCSWTrigger.c:0:7
	movw	r0, #17408
	movt	r0, #16386
	.loc	2 154 24 is_stmt 1      @ inc/ADCSWTrigger.c:154:24
	ldr	r1, [r0]
	bic	r1, r1, #4
	str	r1, [r0]
	movw	r0, #17440
	movt	r0, #16386
	.loc	2 155 26                @ inc/ADCSWTrigger.c:155:26
	ldr	r1, [r0]
	orr	r1, r1, #4
	str	r1, [r0]
	movw	r0, #17692
	movt	r0, #16386
	.loc	2 156 24                @ inc/ADCSWTrigger.c:156:24
	ldr	r1, [r0]
	bic	r1, r1, #4
	str	r1, [r0]
	movw	r0, #17704
	movt	r0, #16386
	.loc	2 157 26                @ inc/ADCSWTrigger.c:157:26
	ldr	r1, [r0]
	orr	r1, r1, #4
	str	r1, [r0]
	.loc	2 158 7                 @ inc/ADCSWTrigger.c:158:7
	b	.LBB2_23
.LBB2_13:
	.loc	2 0 7 is_stmt 0         @ inc/ADCSWTrigger.c:0:7
	movw	r0, #17408
	movt	r0, #16386
	.loc	2 160 24 is_stmt 1      @ inc/ADCSWTrigger.c:160:24
	ldr	r1, [r0]
	bic	r1, r1, #2
	str	r1, [r0]
	movw	r0, #17440
	movt	r0, #16386
	.loc	2 161 26                @ inc/ADCSWTrigger.c:161:26
	ldr	r1, [r0]
	orr	r1, r1, #2
	str	r1, [r0]
	movw	r0, #17692
	movt	r0, #16386
	.loc	2 162 24                @ inc/ADCSWTrigger.c:162:24
	ldr	r1, [r0]
	bic	r1, r1, #2
	str	r1, [r0]
	movw	r0, #17704
	movt	r0, #16386
	.loc	2 163 26                @ inc/ADCSWTrigger.c:163:26
	ldr	r1, [r0]
	orr	r1, r1, #2
	str	r1, [r0]
	.loc	2 164 7                 @ inc/ADCSWTrigger.c:164:7
	b	.LBB2_23
.LBB2_14:
	.loc	2 0 7 is_stmt 0         @ inc/ADCSWTrigger.c:0:7
	movw	r0, #17408
	movt	r0, #16386
	.loc	2 166 24 is_stmt 1      @ inc/ADCSWTrigger.c:166:24
	ldr	r1, [r0]
	bic	r1, r1, #1
	str	r1, [r0]
	movw	r0, #17440
	movt	r0, #16386
	.loc	2 167 26                @ inc/ADCSWTrigger.c:167:26
	ldr	r1, [r0]
	orr	r1, r1, #1
	str	r1, [r0]
	movw	r0, #17692
	movt	r0, #16386
	.loc	2 168 24                @ inc/ADCSWTrigger.c:168:24
	ldr	r1, [r0]
	bic	r1, r1, #1
	str	r1, [r0]
	movw	r0, #17704
	movt	r0, #16386
	.loc	2 169 26                @ inc/ADCSWTrigger.c:169:26
	ldr	r1, [r0]
	orr	r1, r1, #1
	str	r1, [r0]
	.loc	2 170 7                 @ inc/ADCSWTrigger.c:170:7
	b	.LBB2_23
.LBB2_15:
	.loc	2 0 7 is_stmt 0         @ inc/ADCSWTrigger.c:0:7
	movw	r0, #29696
	movt	r0, #16384
	.loc	2 172 24 is_stmt 1      @ inc/ADCSWTrigger.c:172:24
	ldr	r1, [r0]
	bic	r1, r1, #8
	str	r1, [r0]
	movw	r0, #29728
	movt	r0, #16384
	.loc	2 173 26                @ inc/ADCSWTrigger.c:173:26
	ldr	r1, [r0]
	orr	r1, r1, #8
	str	r1, [r0]
	movw	r0, #29980
	movt	r0, #16384
	.loc	2 174 24                @ inc/ADCSWTrigger.c:174:24
	ldr	r1, [r0]
	bic	r1, r1, #8
	str	r1, [r0]
	movw	r0, #29992
	movt	r0, #16384
	.loc	2 175 26                @ inc/ADCSWTrigger.c:175:26
	ldr	r1, [r0]
	orr	r1, r1, #8
	str	r1, [r0]
	.loc	2 176 7                 @ inc/ADCSWTrigger.c:176:7
	b	.LBB2_23
.LBB2_16:
	.loc	2 0 7 is_stmt 0         @ inc/ADCSWTrigger.c:0:7
	movw	r0, #29696
	movt	r0, #16384
	.loc	2 178 24 is_stmt 1      @ inc/ADCSWTrigger.c:178:24
	ldr	r1, [r0]
	bic	r1, r1, #4
	str	r1, [r0]
	movw	r0, #29728
	movt	r0, #16384
	.loc	2 179 26                @ inc/ADCSWTrigger.c:179:26
	ldr	r1, [r0]
	orr	r1, r1, #4
	str	r1, [r0]
	movw	r0, #29980
	movt	r0, #16384
	.loc	2 180 24                @ inc/ADCSWTrigger.c:180:24
	ldr	r1, [r0]
	bic	r1, r1, #4
	str	r1, [r0]
	movw	r0, #29992
	movt	r0, #16384
	.loc	2 181 26                @ inc/ADCSWTrigger.c:181:26
	ldr	r1, [r0]
	orr	r1, r1, #4
	str	r1, [r0]
	.loc	2 182 7                 @ inc/ADCSWTrigger.c:182:7
	b	.LBB2_23
.LBB2_17:
	.loc	2 0 7 is_stmt 0         @ inc/ADCSWTrigger.c:0:7
	movw	r0, #29696
	movt	r0, #16384
	.loc	2 184 24 is_stmt 1      @ inc/ADCSWTrigger.c:184:24
	ldr	r1, [r0]
	bic	r1, r1, #2
	str	r1, [r0]
	movw	r0, #29728
	movt	r0, #16384
	.loc	2 185 26                @ inc/ADCSWTrigger.c:185:26
	ldr	r1, [r0]
	orr	r1, r1, #2
	str	r1, [r0]
	movw	r0, #29980
	movt	r0, #16384
	.loc	2 186 24                @ inc/ADCSWTrigger.c:186:24
	ldr	r1, [r0]
	bic	r1, r1, #2
	str	r1, [r0]
	movw	r0, #29992
	movt	r0, #16384
	.loc	2 187 26                @ inc/ADCSWTrigger.c:187:26
	ldr	r1, [r0]
	orr	r1, r1, #2
	str	r1, [r0]
	.loc	2 188 7                 @ inc/ADCSWTrigger.c:188:7
	b	.LBB2_23
.LBB2_18:
	.loc	2 0 7 is_stmt 0         @ inc/ADCSWTrigger.c:0:7
	movw	r0, #29696
	movt	r0, #16384
	.loc	2 190 24 is_stmt 1      @ inc/ADCSWTrigger.c:190:24
	ldr	r1, [r0]
	bic	r1, r1, #1
	str	r1, [r0]
	movw	r0, #29728
	movt	r0, #16384
	.loc	2 191 26                @ inc/ADCSWTrigger.c:191:26
	ldr	r1, [r0]
	orr	r1, r1, #1
	str	r1, [r0]
	movw	r0, #29980
	movt	r0, #16384
	.loc	2 192 24                @ inc/ADCSWTrigger.c:192:24
	ldr	r1, [r0]
	bic	r1, r1, #1
	str	r1, [r0]
	movw	r0, #29992
	movt	r0, #16384
	.loc	2 193 26                @ inc/ADCSWTrigger.c:193:26
	ldr	r1, [r0]
	orr	r1, r1, #1
	str	r1, [r0]
	.loc	2 194 7                 @ inc/ADCSWTrigger.c:194:7
	b	.LBB2_23
.LBB2_19:
	.loc	2 0 7 is_stmt 0         @ inc/ADCSWTrigger.c:0:7
	movw	r0, #17408
	movt	r0, #16386
	.loc	2 196 24 is_stmt 1      @ inc/ADCSWTrigger.c:196:24
	ldr	r1, [r0]
	bic	r1, r1, #32
	str	r1, [r0]
	movw	r0, #17440
	movt	r0, #16386
	.loc	2 197 26                @ inc/ADCSWTrigger.c:197:26
	ldr	r1, [r0]
	orr	r1, r1, #32
	str	r1, [r0]
	movw	r0, #17692
	movt	r0, #16386
	.loc	2 198 24                @ inc/ADCSWTrigger.c:198:24
	ldr	r1, [r0]
	bic	r1, r1, #32
	str	r1, [r0]
	movw	r0, #17704
	movt	r0, #16386
	.loc	2 199 26                @ inc/ADCSWTrigger.c:199:26
	ldr	r1, [r0]
	orr	r1, r1, #32
	str	r1, [r0]
	.loc	2 200 7                 @ inc/ADCSWTrigger.c:200:7
	b	.LBB2_23
.LBB2_20:
	.loc	2 0 7 is_stmt 0         @ inc/ADCSWTrigger.c:0:7
	movw	r0, #17408
	movt	r0, #16386
	.loc	2 202 24 is_stmt 1      @ inc/ADCSWTrigger.c:202:24
	ldr	r1, [r0]
	bic	r1, r1, #16
	str	r1, [r0]
	movw	r0, #17440
	movt	r0, #16386
	.loc	2 203 26                @ inc/ADCSWTrigger.c:203:26
	ldr	r1, [r0]
	orr	r1, r1, #16
	str	r1, [r0]
	movw	r0, #17692
	movt	r0, #16386
	.loc	2 204 24                @ inc/ADCSWTrigger.c:204:24
	ldr	r1, [r0]
	bic	r1, r1, #16
	str	r1, [r0]
	movw	r0, #17704
	movt	r0, #16386
	.loc	2 205 26                @ inc/ADCSWTrigger.c:205:26
	ldr	r1, [r0]
	orr	r1, r1, #16
	str	r1, [r0]
	.loc	2 206 7                 @ inc/ADCSWTrigger.c:206:7
	b	.LBB2_23
.LBB2_21:
	.loc	2 0 7 is_stmt 0         @ inc/ADCSWTrigger.c:0:7
	movw	r0, #21504
	movt	r0, #16384
	.loc	2 208 24 is_stmt 1      @ inc/ADCSWTrigger.c:208:24
	ldr	r1, [r0]
	bic	r1, r1, #16
	str	r1, [r0]
	movw	r0, #21536
	movt	r0, #16384
	.loc	2 209 26                @ inc/ADCSWTrigger.c:209:26
	ldr	r1, [r0]
	orr	r1, r1, #16
	str	r1, [r0]
	movw	r0, #21788
	movt	r0, #16384
	.loc	2 210 24                @ inc/ADCSWTrigger.c:210:24
	ldr	r1, [r0]
	bic	r1, r1, #16
	str	r1, [r0]
	movw	r0, #21800
	movt	r0, #16384
	.loc	2 211 26                @ inc/ADCSWTrigger.c:211:26
	ldr	r1, [r0]
	orr	r1, r1, #16
	str	r1, [r0]
	.loc	2 212 7                 @ inc/ADCSWTrigger.c:212:7
	b	.LBB2_23
.LBB2_22:
	.loc	2 0 7 is_stmt 0         @ inc/ADCSWTrigger.c:0:7
	movw	r0, #21504
	movt	r0, #16384
	.loc	2 214 24 is_stmt 1      @ inc/ADCSWTrigger.c:214:24
	ldr	r1, [r0]
	bic	r1, r1, #32
	str	r1, [r0]
	movw	r0, #21536
	movt	r0, #16384
	.loc	2 215 26                @ inc/ADCSWTrigger.c:215:26
	ldr	r1, [r0]
	orr	r1, r1, #32
	str	r1, [r0]
	movw	r0, #21788
	movt	r0, #16384
	.loc	2 216 24                @ inc/ADCSWTrigger.c:216:24
	ldr	r1, [r0]
	bic	r1, r1, #32
	str	r1, [r0]
	movw	r0, #21800
	movt	r0, #16384
	.loc	2 217 26                @ inc/ADCSWTrigger.c:217:26
	ldr	r1, [r0]
	orr	r1, r1, #32
	str	r1, [r0]
	.loc	2 218 7                 @ inc/ADCSWTrigger.c:218:7
	b	.LBB2_23
.Ltmp8:
.LBB2_23:
	.loc	2 0 7 is_stmt 0         @ inc/ADCSWTrigger.c:0:7
	movw	r0, #58936
	movt	r0, #16399
	.loc	2 220 20 is_stmt 1      @ inc/ADCSWTrigger.c:220:20
	ldr	r1, [r0]
	orr	r1, r1, #1
	str	r1, [r0]
	.loc	2 225 3                 @ inc/ADCSWTrigger.c:225:3
	b	.LBB2_24
.LBB2_24:                               @ =>This Inner Loop Header: Depth=1
	.loc	2 0 3 is_stmt 0         @ inc/ADCSWTrigger.c:0:3
	movw	r0, #59960
	movt	r0, #16399
	.loc	2 225 10                @ inc/ADCSWTrigger.c:225:10
	ldr	r0, [r0]
	.loc	2 225 3                 @ inc/ADCSWTrigger.c:225:3
	lsls	r0, r0, #31
	cmp	r0, #0
	bne	.LBB2_26
	b	.LBB2_25
.LBB2_25:                               @   in Loop: Header=BB2_24 Depth=1
	b	.LBB2_24
.LBB2_26:
	.loc	2 0 3                   @ inc/ADCSWTrigger.c:0:3
	movw	r0, #36804
	movt	r0, #16387
	.loc	2 227 13 is_stmt 1      @ inc/ADCSWTrigger.c:227:13
	ldr	r1, [r0]
	bic	r1, r1, #15
	str	r1, [r0]
	.loc	2 228 13                @ inc/ADCSWTrigger.c:228:13
	ldr	r1, [r0]
	orr	r1, r1, #1
	str	r1, [r0]
	movw	r0, #32800
	movt	r0, #16387
	movw	r1, #12816
	.loc	2 229 16                @ inc/ADCSWTrigger.c:229:16
	str	r1, [r0]
	movw	r0, #32768
	movt	r0, #16387
	.loc	2 230 16                @ inc/ADCSWTrigger.c:230:16
	ldr	r1, [r0]
	bic	r1, r1, #8
	str	r1, [r0]
	movw	r1, #32788
	movt	r1, #16387
	.loc	2 231 15                @ inc/ADCSWTrigger.c:231:15
	ldr	r2, [r1]
	bic	r2, r2, #61440
	str	r2, [r1]
	movw	r1, #32928
	movt	r1, #16387
	.loc	2 232 17                @ inc/ADCSWTrigger.c:232:17
	ldr	r2, [r1]
	bic	r2, r2, #15
	str	r2, [r1]
	.loc	2 233 20                @ inc/ADCSWTrigger.c:233:20
	ldrb.w	r2, [sp, #15]
	.loc	2 233 17 is_stmt 0      @ inc/ADCSWTrigger.c:233:17
	ldr	r3, [r1]
	add	r2, r3
	str	r2, [r1]
	movw	r1, #32932
	movt	r1, #16387
	movs	r2, #6
	.loc	2 234 17 is_stmt 1      @ inc/ADCSWTrigger.c:234:17
	str	r2, [r1]
	movw	r1, #32776
	movt	r1, #16387
	.loc	2 235 13                @ inc/ADCSWTrigger.c:235:13
	ldr	r2, [r1]
	bic	r2, r2, #8
	str	r2, [r1]
	.loc	2 236 16                @ inc/ADCSWTrigger.c:236:16
	ldr	r1, [r0]
	orr	r1, r1, #8
	str	r1, [r0]
	.loc	2 237 1                 @ inc/ADCSWTrigger.c:237:1
	b	.LBB2_27
.LBB2_27:
	add	sp, #16
	bx	lr
.Ltmp9:
.Lfunc_end2:
	.size	ADC0_InitSWTriggerSeq3, .Lfunc_end2-ADC0_InitSWTriggerSeq3
	.cfi_endproc
	.cantunwind
	.fnend
                                        @ -- End function
	.section	.text.ADC0_InSeq3,"ax",%progbits
	.hidden	ADC0_InSeq3             @ -- Begin function ADC0_InSeq3
	.globl	ADC0_InSeq3
	.p2align	2
	.type	ADC0_InSeq3,%function
	.code	16                      @ @ADC0_InSeq3
	.thumb_func
ADC0_InSeq3:
.Lfunc_begin3:
	.loc	2 242 0                 @ inc/ADCSWTrigger.c:242:0
	.fnstart
	.cfi_startproc
@ %bb.0:
	.pad	#4
	sub	sp, #4
	.cfi_def_cfa_offset 4
	movw	r0, #32808
	movt	r0, #16387
	movs	r1, #8
.Ltmp10:
	.loc	2 243 15 prologue_end   @ inc/ADCSWTrigger.c:243:15
	str	r1, [r0]
	.loc	2 244 3                 @ inc/ADCSWTrigger.c:244:3
	b	.LBB3_1
.LBB3_1:                                @ =>This Inner Loop Header: Depth=1
	.loc	2 0 3 is_stmt 0         @ inc/ADCSWTrigger.c:0:3
	movw	r0, #32772
	movt	r0, #16387
	.loc	2 244 10                @ inc/ADCSWTrigger.c:244:10
	ldr	r0, [r0]
	.loc	2 244 3                 @ inc/ADCSWTrigger.c:244:3
	lsls	r0, r0, #28
	cmp	r0, #0
	bmi	.LBB3_3
	b	.LBB3_2
.LBB3_2:                                @   in Loop: Header=BB3_1 Depth=1
	b	.LBB3_1
.LBB3_3:
	.loc	2 0 3                   @ inc/ADCSWTrigger.c:0:3
	movw	r0, #32936
	movt	r0, #16387
	.loc	2 246 12 is_stmt 1      @ inc/ADCSWTrigger.c:246:12
	ldr	r0, [r0]
	.loc	2 246 26 is_stmt 0      @ inc/ADCSWTrigger.c:246:26
	bfc	r0, #12, #20
	.loc	2 246 10                @ inc/ADCSWTrigger.c:246:10
	str	r0, [sp]
	movw	r0, #32780
	movt	r0, #16387
	movs	r1, #8
	.loc	2 247 14 is_stmt 1      @ inc/ADCSWTrigger.c:247:14
	str	r1, [r0]
	.loc	2 248 10                @ inc/ADCSWTrigger.c:248:10
	ldr	r0, [sp]
	.loc	2 248 3 is_stmt 0       @ inc/ADCSWTrigger.c:248:3
	add	sp, #4
	bx	lr
.Ltmp11:
.Lfunc_end3:
	.size	ADC0_InSeq3, .Lfunc_end3-ADC0_InSeq3
	.cfi_endproc
	.cantunwind
	.fnend
                                        @ -- End function
	.section	.text.ADC_Init89,"ax",%progbits
	.hidden	ADC_Init89              @ -- Begin function ADC_Init89
	.globl	ADC_Init89
	.p2align	2
	.type	ADC_Init89,%function
	.code	16                      @ @ADC_Init89
	.thumb_func
ADC_Init89:
.Lfunc_begin4:
	.loc	2 280 0 is_stmt 1       @ inc/ADCSWTrigger.c:280:0
	.fnstart
	.cfi_startproc
@ %bb.0:
	.pad	#4
	sub	sp, #4
	.cfi_def_cfa_offset 4
	movw	r0, #58936
	movt	r0, #16399
.Ltmp12:
	.loc	2 282 20 prologue_end   @ inc/ADCSWTrigger.c:282:20
	ldr	r1, [r0]
	orr	r1, r1, #1
	str	r1, [r0]
	movw	r0, #58888
	movt	r0, #16399
	.loc	2 283 21                @ inc/ADCSWTrigger.c:283:21
	ldr	r1, [r0]
	orr	r1, r1, #16
	str	r1, [r0]
	.loc	2 284 11                @ inc/ADCSWTrigger.c:284:11
	ldr	r1, [r0]
	.loc	2 284 9 is_stmt 0       @ inc/ADCSWTrigger.c:284:9
	str	r1, [sp]
	.loc	2 285 11 is_stmt 1      @ inc/ADCSWTrigger.c:285:11
	ldr	r0, [r0]
	.loc	2 285 9 is_stmt 0       @ inc/ADCSWTrigger.c:285:9
	str	r0, [sp]
	movw	r0, #17408
	movt	r0, #16386
	.loc	2 286 20 is_stmt 1      @ inc/ADCSWTrigger.c:286:20
	ldr	r1, [r0]
	bic	r1, r1, #48
	str	r1, [r0]
	movw	r0, #17440
	movt	r0, #16386
	.loc	2 287 22                @ inc/ADCSWTrigger.c:287:22
	ldr	r1, [r0]
	orr	r1, r1, #48
	str	r1, [r0]
	movw	r0, #17692
	movt	r0, #16386
	.loc	2 288 20                @ inc/ADCSWTrigger.c:288:20
	ldr	r1, [r0]
	bic	r1, r1, #48
	str	r1, [r0]
	movw	r0, #17708
	movt	r0, #16386
	.loc	2 290 23                @ inc/ADCSWTrigger.c:290:23
	ldr	r1, [r0]
	.loc	2 290 40 is_stmt 0      @ inc/ADCSWTrigger.c:290:40
	bic	r1, r1, #16711680
	.loc	2 290 21                @ inc/ADCSWTrigger.c:290:21
	str	r1, [r0]
	movw	r0, #17704
	movt	r0, #16386
	.loc	2 291 22 is_stmt 1      @ inc/ADCSWTrigger.c:291:22
	ldr	r1, [r0]
	orr	r1, r1, #48
	str	r1, [r0]
	movw	r0, #36804
	movt	r0, #16387
	.loc	2 292 13                @ inc/ADCSWTrigger.c:292:13
	ldr	r1, [r0]
	bic	r1, r1, #15
	str	r1, [r0]
	.loc	2 293 13                @ inc/ADCSWTrigger.c:293:13
	ldr	r1, [r0]
	orr	r1, r1, #1
	str	r1, [r0]
	movw	r0, #32800
	movt	r0, #16387
	movw	r1, #12816
	.loc	2 294 16                @ inc/ADCSWTrigger.c:294:16
	str	r1, [r0]
	movw	r0, #32768
	movt	r0, #16387
	.loc	2 295 16                @ inc/ADCSWTrigger.c:295:16
	ldr	r1, [r0]
	bic	r1, r1, #4
	str	r1, [r0]
	movw	r1, #32788
	movt	r1, #16387
	.loc	2 296 15                @ inc/ADCSWTrigger.c:296:15
	ldr	r2, [r1]
	bic	r2, r2, #3840
	str	r2, [r1]
	movw	r1, #32896
	movt	r1, #16387
	movs	r2, #137
	.loc	2 297 17                @ inc/ADCSWTrigger.c:297:17
	str	r2, [r1]
	movw	r1, #32900
	movt	r1, #16387
	movs	r2, #96
	.loc	2 298 17                @ inc/ADCSWTrigger.c:298:17
	str	r2, [r1]
	movw	r1, #32776
	movt	r1, #16387
	.loc	2 299 13                @ inc/ADCSWTrigger.c:299:13
	ldr	r2, [r1]
	bic	r2, r2, #4
	str	r2, [r1]
	.loc	2 300 16                @ inc/ADCSWTrigger.c:300:16
	ldr	r1, [r0]
	orr	r1, r1, #4
	str	r1, [r0]
	.loc	2 301 1                 @ inc/ADCSWTrigger.c:301:1
	add	sp, #4
	bx	lr
.Ltmp13:
.Lfunc_end4:
	.size	ADC_Init89, .Lfunc_end4-ADC_Init89
	.cfi_endproc
	.cantunwind
	.fnend
                                        @ -- End function
	.section	.text.ADC_In89,"ax",%progbits
	.hidden	ADC_In89                @ -- Begin function ADC_In89
	.globl	ADC_In89
	.p2align	2
	.type	ADC_In89,%function
	.code	16                      @ @ADC_In89
	.thumb_func
ADC_In89:
.Lfunc_begin5:
	.loc	2 313 0                 @ inc/ADCSWTrigger.c:313:0
	.fnstart
	.cfi_startproc
@ %bb.0:
	.pad	#4
	sub	sp, #4
	.cfi_def_cfa_offset 4
	str	r0, [sp]
	movw	r0, #32808
	movt	r0, #16387
	movs	r1, #4
.Ltmp14:
	.loc	2 314 15 prologue_end   @ inc/ADCSWTrigger.c:314:15
	str	r1, [r0]
	.loc	2 315 3                 @ inc/ADCSWTrigger.c:315:3
	b	.LBB5_1
.LBB5_1:                                @ =>This Inner Loop Header: Depth=1
	.loc	2 0 3 is_stmt 0         @ inc/ADCSWTrigger.c:0:3
	movw	r0, #32772
	movt	r0, #16387
	.loc	2 315 10                @ inc/ADCSWTrigger.c:315:10
	ldr	r0, [r0]
	.loc	2 315 3                 @ inc/ADCSWTrigger.c:315:3
	lsls	r0, r0, #29
	cmp	r0, #0
	bmi	.LBB5_3
	b	.LBB5_2
.LBB5_2:                                @   in Loop: Header=BB5_1 Depth=1
	b	.LBB5_1
.LBB5_3:
	.loc	2 0 3                   @ inc/ADCSWTrigger.c:0:3
	movw	r0, #32904
	movt	r0, #16387
	.loc	2 316 13 is_stmt 1      @ inc/ADCSWTrigger.c:316:13
	ldr	r1, [r0]
	.loc	2 316 27 is_stmt 0      @ inc/ADCSWTrigger.c:316:27
	bfc	r1, #12, #20
	.loc	2 316 3                 @ inc/ADCSWTrigger.c:316:3
	ldr	r2, [sp]
	.loc	2 316 11                @ inc/ADCSWTrigger.c:316:11
	str	r1, [r2, #4]
	.loc	2 317 13 is_stmt 1      @ inc/ADCSWTrigger.c:317:13
	ldr	r0, [r0]
	.loc	2 317 27 is_stmt 0      @ inc/ADCSWTrigger.c:317:27
	bfc	r0, #12, #20
	.loc	2 317 3                 @ inc/ADCSWTrigger.c:317:3
	ldr	r1, [sp]
	.loc	2 317 11                @ inc/ADCSWTrigger.c:317:11
	str	r0, [r1]
	movw	r0, #32780
	movt	r0, #16387
	movs	r1, #4
	.loc	2 318 14 is_stmt 1      @ inc/ADCSWTrigger.c:318:14
	str	r1, [r0]
	.loc	2 319 1                 @ inc/ADCSWTrigger.c:319:1
	add	sp, #4
	bx	lr
.Ltmp15:
.Lfunc_end5:
	.size	ADC_In89, .Lfunc_end5-ADC_In89
	.cfi_endproc
	.cantunwind
	.fnend
                                        @ -- End function
	.section	.text.ADC0_InitSWTriggerSeq2,"ax",%progbits
	.hidden	ADC0_InitSWTriggerSeq2  @ -- Begin function ADC0_InitSWTriggerSeq2
	.globl	ADC0_InitSWTriggerSeq2
	.p2align	2
	.type	ADC0_InitSWTriggerSeq2,%function
	.code	16                      @ @ADC0_InitSWTriggerSeq2
	.thumb_func
ADC0_InitSWTriggerSeq2:
.Lfunc_begin6:
	.loc	2 338 0                 @ inc/ADCSWTrigger.c:338:0
	.fnstart
	.cfi_startproc
@ %bb.0:
	.pad	#4
	sub	sp, #4
	.cfi_def_cfa_offset 4
	str	r0, [sp]
	movw	r0, #58888
	movt	r0, #16399
.Ltmp16:
	.loc	2 340 21 prologue_end   @ inc/ADCSWTrigger.c:340:21
	ldr	r1, [r0]
	orr	r1, r1, #8
	str	r1, [r0]
	.loc	2 342 3                 @ inc/ADCSWTrigger.c:342:3
	b	.LBB6_1
.LBB6_1:                                @ =>This Inner Loop Header: Depth=1
	.loc	2 0 3 is_stmt 0         @ inc/ADCSWTrigger.c:0:3
	movw	r0, #59912
	movt	r0, #16399
	.loc	2 342 10                @ inc/ADCSWTrigger.c:342:10
	ldr	r0, [r0]
	.loc	2 342 3                 @ inc/ADCSWTrigger.c:342:3
	lsls	r0, r0, #28
	cmp	r0, #0
	bmi	.LBB6_3
	b	.LBB6_2
.LBB6_2:                                @   in Loop: Header=BB6_1 Depth=1
	b	.LBB6_1
.LBB6_3:
	.loc	2 0 3                   @ inc/ADCSWTrigger.c:0:3
	movw	r0, #29696
	movt	r0, #16384
	.loc	2 343 20 is_stmt 1      @ inc/ADCSWTrigger.c:343:20
	ldr	r1, [r0]
	bic	r1, r1, #14
	str	r1, [r0]
	movw	r0, #29728
	movt	r0, #16384
	.loc	2 344 22                @ inc/ADCSWTrigger.c:344:22
	ldr	r1, [r0]
	orr	r1, r1, #14
	str	r1, [r0]
	movw	r0, #29980
	movt	r0, #16384
	.loc	2 345 20                @ inc/ADCSWTrigger.c:345:20
	ldr	r1, [r0]
	bic	r1, r1, #14
	str	r1, [r0]
	movw	r0, #29992
	movt	r0, #16384
	.loc	2 346 22                @ inc/ADCSWTrigger.c:346:22
	ldr	r1, [r0]
	orr	r1, r1, #14
	str	r1, [r0]
	movw	r0, #58936
	movt	r0, #16399
	.loc	2 348 20                @ inc/ADCSWTrigger.c:348:20
	ldr	r1, [r0]
	orr	r1, r1, #1
	str	r1, [r0]
	.loc	2 350 3                 @ inc/ADCSWTrigger.c:350:3
	b	.LBB6_4
.LBB6_4:                                @ =>This Inner Loop Header: Depth=1
	.loc	2 0 3 is_stmt 0         @ inc/ADCSWTrigger.c:0:3
	movw	r0, #59960
	movt	r0, #16399
	.loc	2 350 10                @ inc/ADCSWTrigger.c:350:10
	ldr	r0, [r0]
	.loc	2 350 3                 @ inc/ADCSWTrigger.c:350:3
	lsls	r0, r0, #31
	cmp	r0, #0
	bne	.LBB6_6
	b	.LBB6_5
.LBB6_5:                                @   in Loop: Header=BB6_4 Depth=1
	b	.LBB6_4
.LBB6_6:
	.loc	2 0 3                   @ inc/ADCSWTrigger.c:0:3
	movw	r0, #36804
	movt	r0, #16387
	movs	r1, #1
	.loc	2 351 13 is_stmt 1      @ inc/ADCSWTrigger.c:351:13
	str	r1, [r0]
	movw	r0, #32800
	movt	r0, #16387
	movw	r1, #12816
	.loc	2 352 16                @ inc/ADCSWTrigger.c:352:16
	str	r1, [r0]
	movw	r0, #32768
	movt	r0, #16387
	.loc	2 353 16                @ inc/ADCSWTrigger.c:353:16
	ldr	r1, [r0]
	bic	r1, r1, #4
	str	r1, [r0]
	movw	r1, #32788
	movt	r1, #16387
	.loc	2 354 18                @ inc/ADCSWTrigger.c:354:18
	ldr	r2, [r1]
	.loc	2 354 29 is_stmt 0      @ inc/ADCSWTrigger.c:354:29
	bic	r2, r2, #3840
	.loc	2 354 15                @ inc/ADCSWTrigger.c:354:15
	str	r2, [r1]
	movw	r1, #32896
	movt	r1, #16387
	movw	r2, #1110
	.loc	2 355 17 is_stmt 1      @ inc/ADCSWTrigger.c:355:17
	str	r2, [r1]
	movw	r1, #32900
	movt	r1, #16387
	mov.w	r2, #1536
	.loc	2 356 17                @ inc/ADCSWTrigger.c:356:17
	str	r2, [r1]
	movw	r1, #32776
	movt	r1, #16387
	.loc	2 357 13                @ inc/ADCSWTrigger.c:357:13
	ldr	r2, [r1]
	bic	r2, r2, #4
	str	r2, [r1]
	.loc	2 358 16                @ inc/ADCSWTrigger.c:358:16
	ldr	r1, [r0]
	orr	r1, r1, #4
	str	r1, [r0]
	.loc	2 360 15                @ inc/ADCSWTrigger.c:360:15
	ldr	r0, [sp]
	.loc	2 360 13 is_stmt 0      @ inc/ADCSWTrigger.c:360:13
	movw	r1, :lower16:UserTask2
	movt	r1, :upper16:UserTask2
	str	r0, [r1]
	.loc	2 361 1 is_stmt 1       @ inc/ADCSWTrigger.c:361:1
	add	sp, #4
	bx	lr
.Ltmp17:
.Lfunc_end6:
	.size	ADC0_InitSWTriggerSeq2, .Lfunc_end6-ADC0_InitSWTriggerSeq2
	.cfi_endproc
	.cantunwind
	.fnend
                                        @ -- End function
	.section	.text.ADC0_InSeq2,"ax",%progbits
	.hidden	ADC0_InSeq2             @ -- Begin function ADC0_InSeq2
	.globl	ADC0_InSeq2
	.p2align	2
	.type	ADC0_InSeq2,%function
	.code	16                      @ @ADC0_InSeq2
	.thumb_func
ADC0_InSeq2:
.Lfunc_begin7:
	.loc	2 373 0                 @ inc/ADCSWTrigger.c:373:0
	.fnstart
	.cfi_startproc
@ %bb.0:
	.save	{r7, lr}
	push	{r7, lr}
	.cfi_def_cfa_offset 8
	.cfi_offset lr, -4
	.cfi_offset r7, -8
	.pad	#16
	sub	sp, #16
	.cfi_def_cfa_offset 24
	movw	r0, #32808
	movt	r0, #16387
	movs	r1, #4
.Ltmp18:
	.loc	2 375 15 prologue_end   @ inc/ADCSWTrigger.c:375:15
	str	r1, [r0]
	.loc	2 376 3                 @ inc/ADCSWTrigger.c:376:3
	b	.LBB7_1
.LBB7_1:                                @ =>This Inner Loop Header: Depth=1
	.loc	2 0 3 is_stmt 0         @ inc/ADCSWTrigger.c:0:3
	movw	r0, #32772
	movt	r0, #16387
	.loc	2 376 10                @ inc/ADCSWTrigger.c:376:10
	ldr	r0, [r0]
	.loc	2 376 3                 @ inc/ADCSWTrigger.c:376:3
	lsls	r0, r0, #29
	cmp	r0, #0
	bmi	.LBB7_3
	b	.LBB7_2
.LBB7_2:                                @   in Loop: Header=BB7_1 Depth=1
	b	.LBB7_1
.LBB7_3:
	.loc	2 0 3                   @ inc/ADCSWTrigger.c:0:3
	movw	r0, #32904
	movt	r0, #16387
	.loc	2 377 7 is_stmt 1       @ inc/ADCSWTrigger.c:377:7
	ldr	r1, [r0]
	.loc	2 377 21 is_stmt 0      @ inc/ADCSWTrigger.c:377:21
	bfc	r1, #12, #20
	.loc	2 377 5                 @ inc/ADCSWTrigger.c:377:5
	str	r1, [sp, #12]
	.loc	2 378 7 is_stmt 1       @ inc/ADCSWTrigger.c:378:7
	ldr	r1, [r0]
	.loc	2 378 21 is_stmt 0      @ inc/ADCSWTrigger.c:378:21
	bfc	r1, #12, #20
	.loc	2 378 5                 @ inc/ADCSWTrigger.c:378:5
	str	r1, [sp, #8]
	.loc	2 379 7 is_stmt 1       @ inc/ADCSWTrigger.c:379:7
	ldr	r0, [r0]
	.loc	2 379 21 is_stmt 0      @ inc/ADCSWTrigger.c:379:21
	bfc	r0, #12, #20
	.loc	2 379 5                 @ inc/ADCSWTrigger.c:379:5
	str	r0, [sp, #4]
	.loc	2 380 3 is_stmt 1       @ inc/ADCSWTrigger.c:380:3
	movw	r0, :lower16:UserTask2
	movt	r0, :upper16:UserTask2
	ldr	r0, [r0]
	.loc	2 380 13 is_stmt 0      @ inc/ADCSWTrigger.c:380:13
	ldr	r1, [sp, #12]
	.loc	2 380 16                @ inc/ADCSWTrigger.c:380:16
	ldr	r2, [sp, #8]
	.loc	2 380 19                @ inc/ADCSWTrigger.c:380:19
	ldr	r3, [sp, #4]
	.loc	2 380 3                 @ inc/ADCSWTrigger.c:380:3
	str	r0, [sp]                @ 4-byte Spill
	mov	r0, r1
	mov	r1, r2
	mov	r2, r3
	ldr	r3, [sp]                @ 4-byte Reload
	blx	r3
	movw	r0, #32780
	movt	r0, #16387
	movs	r1, #4
	.loc	2 381 14 is_stmt 1      @ inc/ADCSWTrigger.c:381:14
	str	r1, [r0]
	.loc	2 382 1                 @ inc/ADCSWTrigger.c:382:1
	add	sp, #16
	pop	{r7, pc}
.Ltmp19:
.Lfunc_end7:
	.size	ADC0_InSeq2, .Lfunc_end7-ADC0_InSeq2
	.cfi_endproc
	.cantunwind
	.fnend
                                        @ -- End function
	.section	.text.ADC0_InitSWTriggerSeq3_InternalTemperature,"ax",%progbits
	.hidden	ADC0_InitSWTriggerSeq3_InternalTemperature @ -- Begin function ADC0_InitSWTriggerSeq3_InternalTemperature
	.globl	ADC0_InitSWTriggerSeq3_InternalTemperature
	.p2align	2
	.type	ADC0_InitSWTriggerSeq3_InternalTemperature,%function
	.code	16                      @ @ADC0_InitSWTriggerSeq3_InternalTemperature
	.thumb_func
ADC0_InitSWTriggerSeq3_InternalTemperature:
.Lfunc_begin8:
	.loc	2 397 0                 @ inc/ADCSWTrigger.c:397:0
	.fnstart
	.cfi_startproc
@ %bb.0:
	movw	r0, #58936
	movt	r0, #16399
.Ltmp20:
	.loc	2 398 20 prologue_end   @ inc/ADCSWTrigger.c:398:20
	ldr	r1, [r0]
	orr	r1, r1, #1
	str	r1, [r0]
	.loc	2 399 3                 @ inc/ADCSWTrigger.c:399:3
	b	.LBB8_1
.LBB8_1:                                @ =>This Inner Loop Header: Depth=1
	.loc	2 0 3 is_stmt 0         @ inc/ADCSWTrigger.c:0:3
	movw	r0, #59960
	movt	r0, #16399
	.loc	2 399 10                @ inc/ADCSWTrigger.c:399:10
	ldr	r0, [r0]
	.loc	2 399 3                 @ inc/ADCSWTrigger.c:399:3
	lsls	r0, r0, #31
	cmp	r0, #0
	bne	.LBB8_3
	b	.LBB8_2
.LBB8_2:                                @   in Loop: Header=BB8_1 Depth=1
	b	.LBB8_1
.LBB8_3:
	.loc	2 0 3                   @ inc/ADCSWTrigger.c:0:3
	movw	r0, #36804
	movt	r0, #16387
	.loc	2 400 13 is_stmt 1      @ inc/ADCSWTrigger.c:400:13
	ldr	r1, [r0]
	bic	r1, r1, #15
	str	r1, [r0]
	.loc	2 401 13                @ inc/ADCSWTrigger.c:401:13
	ldr	r1, [r0]
	orr	r1, r1, #1
	str	r1, [r0]
	movw	r0, #32800
	movt	r0, #16387
	movw	r1, #291
	.loc	2 402 16                @ inc/ADCSWTrigger.c:402:16
	str	r1, [r0]
	movw	r0, #32768
	movt	r0, #16387
	.loc	2 403 16                @ inc/ADCSWTrigger.c:403:16
	ldr	r1, [r0]
	bic	r1, r1, #8
	str	r1, [r0]
	movw	r1, #32788
	movt	r1, #16387
	.loc	2 404 15                @ inc/ADCSWTrigger.c:404:15
	ldr	r2, [r1]
	bic	r2, r2, #61440
	str	r2, [r1]
	movw	r1, #32816
	movt	r1, #16387
	movs	r2, #6
	.loc	2 405 14                @ inc/ADCSWTrigger.c:405:14
	str	r2, [r1]
	movw	r1, #32932
	movt	r1, #16387
	movs	r2, #14
	.loc	2 406 17                @ inc/ADCSWTrigger.c:406:17
	str	r2, [r1]
	movw	r1, #32776
	movt	r1, #16387
	.loc	2 407 13                @ inc/ADCSWTrigger.c:407:13
	ldr	r2, [r1]
	bic	r2, r2, #8
	str	r2, [r1]
	.loc	2 408 16                @ inc/ADCSWTrigger.c:408:16
	ldr	r1, [r0]
	orr	r1, r1, #8
	str	r1, [r0]
	.loc	2 409 1                 @ inc/ADCSWTrigger.c:409:1
	bx	lr
.Ltmp21:
.Lfunc_end8:
	.size	ADC0_InitSWTriggerSeq3_InternalTemperature, .Lfunc_end8-ADC0_InitSWTriggerSeq3_InternalTemperature
	.cfi_endproc
	.cantunwind
	.fnend
                                        @ -- End function
	.section	.text.ADC0_InSeq3_InternalTemperature,"ax",%progbits
	.hidden	ADC0_InSeq3_InternalTemperature @ -- Begin function ADC0_InSeq3_InternalTemperature
	.globl	ADC0_InSeq3_InternalTemperature
	.p2align	2
	.type	ADC0_InSeq3_InternalTemperature,%function
	.code	16                      @ @ADC0_InSeq3_InternalTemperature
	.thumb_func
ADC0_InSeq3_InternalTemperature:
.Lfunc_begin9:
	.loc	2 416 0                 @ inc/ADCSWTrigger.c:416:0
	.fnstart
	.cfi_startproc
@ %bb.0:
	.pad	#4
	sub	sp, #4
	.cfi_def_cfa_offset 4
	movw	r0, #32808
	movt	r0, #16387
	movs	r1, #8
.Ltmp22:
	.loc	2 417 15 prologue_end   @ inc/ADCSWTrigger.c:417:15
	str	r1, [r0]
	.loc	2 418 3                 @ inc/ADCSWTrigger.c:418:3
	b	.LBB9_1
.LBB9_1:                                @ =>This Inner Loop Header: Depth=1
	.loc	2 0 3 is_stmt 0         @ inc/ADCSWTrigger.c:0:3
	movw	r0, #32772
	movt	r0, #16387
	.loc	2 418 10                @ inc/ADCSWTrigger.c:418:10
	ldr	r0, [r0]
	.loc	2 418 3                 @ inc/ADCSWTrigger.c:418:3
	lsls	r0, r0, #28
	cmp	r0, #0
	bmi	.LBB9_3
	b	.LBB9_2
.LBB9_2:                                @   in Loop: Header=BB9_1 Depth=1
	b	.LBB9_1
.LBB9_3:
	.loc	2 0 3                   @ inc/ADCSWTrigger.c:0:3
	movw	r0, #32936
	movt	r0, #16387
	.loc	2 420 12 is_stmt 1      @ inc/ADCSWTrigger.c:420:12
	ldr	r0, [r0]
	.loc	2 420 26 is_stmt 0      @ inc/ADCSWTrigger.c:420:26
	bfc	r0, #12, #20
	.loc	2 420 10                @ inc/ADCSWTrigger.c:420:10
	str	r0, [sp]
	movw	r0, #32780
	movt	r0, #16387
	movs	r1, #8
	.loc	2 421 14 is_stmt 1      @ inc/ADCSWTrigger.c:421:14
	str	r1, [r0]
	.loc	2 422 31                @ inc/ADCSWTrigger.c:422:31
	ldr	r0, [sp]
	movw	r1, #2475
	.loc	2 422 23 is_stmt 0      @ inc/ADCSWTrigger.c:422:23
	muls	r0, r1, r0
	movw	r1, #1475
	.loc	2 422 17                @ inc/ADCSWTrigger.c:422:17
	sub.w	r0, r1, r0, lsr #12
	.loc	2 422 10                @ inc/ADCSWTrigger.c:422:10
	str	r0, [sp]
	.loc	2 423 10 is_stmt 1      @ inc/ADCSWTrigger.c:423:10
	ldr	r0, [sp]
	.loc	2 423 3 is_stmt 0       @ inc/ADCSWTrigger.c:423:3
	add	sp, #4
	bx	lr
.Ltmp23:
.Lfunc_end9:
	.size	ADC0_InSeq3_InternalTemperature, .Lfunc_end9-ADC0_InSeq3_InternalTemperature
	.cfi_endproc
	.cantunwind
	.fnend
                                        @ -- End function
	.section	.text.ADC_Init3210,"ax",%progbits
	.hidden	ADC_Init3210            @ -- Begin function ADC_Init3210
	.globl	ADC_Init3210
	.p2align	2
	.type	ADC_Init3210,%function
	.code	16                      @ @ADC_Init3210
	.thumb_func
ADC_Init3210:
.Lfunc_begin10:
	.loc	2 435 0 is_stmt 1       @ inc/ADCSWTrigger.c:435:0
	.fnstart
	.cfi_startproc
@ %bb.0:
	.pad	#4
	sub	sp, #4
	.cfi_def_cfa_offset 4
	movw	r0, #58936
	movt	r0, #16399
.Ltmp24:
	.loc	2 437 20 prologue_end   @ inc/ADCSWTrigger.c:437:20
	ldr	r1, [r0]
	orr	r1, r1, #1
	str	r1, [r0]
	movw	r0, #58888
	movt	r0, #16399
	.loc	2 438 21                @ inc/ADCSWTrigger.c:438:21
	ldr	r1, [r0]
	orr	r1, r1, #16
	str	r1, [r0]
	.loc	2 439 3                 @ inc/ADCSWTrigger.c:439:3
	b	.LBB10_1
.LBB10_1:                               @ =>This Inner Loop Header: Depth=1
	.loc	2 0 3 is_stmt 0         @ inc/ADCSWTrigger.c:0:3
	movw	r0, #59912
	movt	r0, #16399
	.loc	2 439 10                @ inc/ADCSWTrigger.c:439:10
	ldr	r0, [r0]
	.loc	2 439 3                 @ inc/ADCSWTrigger.c:439:3
	lsls	r0, r0, #27
	cmp	r0, #0
	bmi	.LBB10_3
	b	.LBB10_2
.LBB10_2:                               @   in Loop: Header=BB10_1 Depth=1
	b	.LBB10_1
.LBB10_3:
	.loc	2 440 3 is_stmt 1       @ inc/ADCSWTrigger.c:440:3
	b	.LBB10_4
.LBB10_4:                               @ =>This Inner Loop Header: Depth=1
	.loc	2 0 3 is_stmt 0         @ inc/ADCSWTrigger.c:0:3
	movw	r0, #59960
	movt	r0, #16399
	.loc	2 440 10                @ inc/ADCSWTrigger.c:440:10
	ldr	r0, [r0]
	.loc	2 440 3                 @ inc/ADCSWTrigger.c:440:3
	lsls	r0, r0, #31
	cmp	r0, #0
	bne	.LBB10_6
	b	.LBB10_5
.LBB10_5:                               @   in Loop: Header=BB10_4 Depth=1
	b	.LBB10_4
.LBB10_6:
	.loc	2 0 3                   @ inc/ADCSWTrigger.c:0:3
	movw	r0, #17408
	movt	r0, #16386
	.loc	2 441 20 is_stmt 1      @ inc/ADCSWTrigger.c:441:20
	ldr	r1, [r0]
	bic	r1, r1, #15
	str	r1, [r0]
	movw	r0, #17440
	movt	r0, #16386
	.loc	2 442 22                @ inc/ADCSWTrigger.c:442:22
	ldr	r1, [r0]
	orr	r1, r1, #15
	str	r1, [r0]
	movw	r0, #17692
	movt	r0, #16386
	.loc	2 443 20                @ inc/ADCSWTrigger.c:443:20
	ldr	r1, [r0]
	bic	r1, r1, #15
	str	r1, [r0]
	movw	r0, #17708
	movt	r0, #16386
	.loc	2 444 23                @ inc/ADCSWTrigger.c:444:23
	ldr	r1, [r0]
	movw	r2, #65535
	.loc	2 444 40 is_stmt 0      @ inc/ADCSWTrigger.c:444:40
	bics	r1, r2
	.loc	2 444 21                @ inc/ADCSWTrigger.c:444:21
	str	r1, [r0]
	movw	r0, #17704
	movt	r0, #16386
	.loc	2 445 22 is_stmt 1      @ inc/ADCSWTrigger.c:445:22
	ldr	r1, [r0]
	orr	r1, r1, #15
	str	r1, [r0]
	movw	r0, #36804
	movt	r0, #16387
	.loc	2 446 13                @ inc/ADCSWTrigger.c:446:13
	ldr	r1, [r0]
	bic	r1, r1, #15
	str	r1, [r0]
	.loc	2 447 13                @ inc/ADCSWTrigger.c:447:13
	ldr	r1, [r0]
	orr	r1, r1, #1
	str	r1, [r0]
	movw	r0, #32800
	movt	r0, #16387
	movw	r1, #12816
	.loc	2 448 16                @ inc/ADCSWTrigger.c:448:16
	str	r1, [r0]
	movw	r0, #32768
	movt	r0, #16387
	.loc	2 449 16                @ inc/ADCSWTrigger.c:449:16
	ldr	r1, [r0]
	bic	r1, r1, #4
	str	r1, [r0]
	movw	r1, #32788
	movt	r1, #16387
	.loc	2 450 15                @ inc/ADCSWTrigger.c:450:15
	ldr	r2, [r1]
	bic	r2, r2, #3840
	str	r2, [r1]
	movw	r1, #32816
	movt	r1, #16387
	movs	r2, #6
	.loc	2 451 14                @ inc/ADCSWTrigger.c:451:14
	str	r2, [r1]
	movw	r1, #32896
	movt	r1, #16387
	movw	r2, #291
	.loc	2 452 17                @ inc/ADCSWTrigger.c:452:17
	str	r2, [r1]
	movw	r1, #32900
	movt	r1, #16387
	mov.w	r2, #24576
	.loc	2 453 17                @ inc/ADCSWTrigger.c:453:17
	str	r2, [r1]
	movw	r1, #32776
	movt	r1, #16387
	.loc	2 454 13                @ inc/ADCSWTrigger.c:454:13
	ldr	r2, [r1]
	bic	r2, r2, #4
	str	r2, [r1]
	.loc	2 455 16                @ inc/ADCSWTrigger.c:455:16
	ldr	r1, [r0]
	orr	r1, r1, #4
	str	r1, [r0]
	.loc	2 456 1                 @ inc/ADCSWTrigger.c:456:1
	add	sp, #4
	bx	lr
.Ltmp25:
.Lfunc_end10:
	.size	ADC_Init3210, .Lfunc_end10-ADC_Init3210
	.cfi_endproc
	.cantunwind
	.fnend
                                        @ -- End function
	.section	.text.ADC_In3210,"ax",%progbits
	.hidden	ADC_In3210              @ -- Begin function ADC_In3210
	.globl	ADC_In3210
	.p2align	2
	.type	ADC_In3210,%function
	.code	16                      @ @ADC_In3210
	.thumb_func
ADC_In3210:
.Lfunc_begin11:
	.loc	2 470 0                 @ inc/ADCSWTrigger.c:470:0
	.fnstart
	.cfi_startproc
@ %bb.0:
	.pad	#4
	sub	sp, #4
	.cfi_def_cfa_offset 4
	str	r0, [sp]
	movw	r0, #32808
	movt	r0, #16387
	movs	r1, #4
.Ltmp26:
	.loc	2 471 15 prologue_end   @ inc/ADCSWTrigger.c:471:15
	str	r1, [r0]
	.loc	2 472 3                 @ inc/ADCSWTrigger.c:472:3
	b	.LBB11_1
.LBB11_1:                               @ =>This Inner Loop Header: Depth=1
	.loc	2 0 3 is_stmt 0         @ inc/ADCSWTrigger.c:0:3
	movw	r0, #32772
	movt	r0, #16387
	.loc	2 472 10                @ inc/ADCSWTrigger.c:472:10
	ldr	r0, [r0]
	.loc	2 472 3                 @ inc/ADCSWTrigger.c:472:3
	lsls	r0, r0, #29
	cmp	r0, #0
	bmi	.LBB11_3
	b	.LBB11_2
.LBB11_2:                               @   in Loop: Header=BB11_1 Depth=1
	b	.LBB11_1
.LBB11_3:
	.loc	2 0 3                   @ inc/ADCSWTrigger.c:0:3
	movw	r0, #32904
	movt	r0, #16387
	.loc	2 473 13 is_stmt 1      @ inc/ADCSWTrigger.c:473:13
	ldr	r1, [r0]
	.loc	2 473 27 is_stmt 0      @ inc/ADCSWTrigger.c:473:27
	bfc	r1, #12, #20
	.loc	2 473 3                 @ inc/ADCSWTrigger.c:473:3
	ldr	r2, [sp]
	.loc	2 473 11                @ inc/ADCSWTrigger.c:473:11
	str	r1, [r2, #12]
	.loc	2 474 13 is_stmt 1      @ inc/ADCSWTrigger.c:474:13
	ldr	r1, [r0]
	.loc	2 474 27 is_stmt 0      @ inc/ADCSWTrigger.c:474:27
	bfc	r1, #12, #20
	.loc	2 474 3                 @ inc/ADCSWTrigger.c:474:3
	ldr	r2, [sp]
	.loc	2 474 11                @ inc/ADCSWTrigger.c:474:11
	str	r1, [r2, #8]
	.loc	2 475 13 is_stmt 1      @ inc/ADCSWTrigger.c:475:13
	ldr	r1, [r0]
	.loc	2 475 27 is_stmt 0      @ inc/ADCSWTrigger.c:475:27
	bfc	r1, #12, #20
	.loc	2 475 3                 @ inc/ADCSWTrigger.c:475:3
	ldr	r2, [sp]
	.loc	2 475 11                @ inc/ADCSWTrigger.c:475:11
	str	r1, [r2, #4]
	.loc	2 476 13 is_stmt 1      @ inc/ADCSWTrigger.c:476:13
	ldr	r0, [r0]
	.loc	2 476 27 is_stmt 0      @ inc/ADCSWTrigger.c:476:27
	bfc	r0, #12, #20
	.loc	2 476 3                 @ inc/ADCSWTrigger.c:476:3
	ldr	r1, [sp]
	.loc	2 476 11                @ inc/ADCSWTrigger.c:476:11
	str	r0, [r1]
	movw	r0, #32780
	movt	r0, #16387
	movs	r1, #4
	.loc	2 477 14 is_stmt 1      @ inc/ADCSWTrigger.c:477:14
	str	r1, [r0]
	.loc	2 478 1                 @ inc/ADCSWTrigger.c:478:1
	add	sp, #4
	bx	lr
.Ltmp27:
.Lfunc_end11:
	.size	ADC_In3210, .Lfunc_end11-ADC_In3210
	.cfi_endproc
	.cantunwind
	.fnend
                                        @ -- End function
	.hidden	UserTask2               @ @UserTask2
	.type	UserTask2,%object
	.section	.bss.UserTask2,"aw",%nobits
	.globl	UserTask2
	.p2align	2
UserTask2:
	.long	0
	.size	UserTask2, 4

	.section	".note.GNU-stack","",%progbits
	.eabi_attribute	30, 6	@ Tag_ABI_optimization_goals
	.ARM_attribute	16, 1	@ Tag_AV_eba