	.text
	.syntax unified
	.eabi_attribute	67, "2.09"	@ Tag_conformance
	.cpu	cortex-m4
	.eabi_attribute	6, 13	@ Tag_CPU_arch
	.eabi_attribute	7, 77	@ Tag_CPU_arch_profile
	.eabi_attribute	8, 0	@ Tag_ARM_ISA_use
	.eabi_attribute	9, 2	@ Tag_THUMB_ISA_use
	.fpu	fpv4-sp-d16
	.eabi_attribute	27, 1	@ Tag_ABI_HardFP_use
	.eabi_attribute	36, 1	@ Tag_FP_HP_extension
	.eabi_attribute	34, 1	@ Tag_CPU_unaligned_access
	.eabi_attribute	17, 1	@ Tag_ABI_PCS_GOT_use
	.eabi_attribute	20, 2	@ Tag_ABI_FP_denormal
	.eabi_attribute	21, 0	@ Tag_ABI_FP_exceptions
	.eabi_attribute	23, 1	@ Tag_ABI_FP_number_model
	.eabi_attribute	24, 1	@ Tag_ABI_align_needed
	.eabi_attribute	25, 1	@ Tag_ABI_align_preserved
	.eabi_attribute	28, 1	@ Tag_ABI_VFP_args
	.eabi_attribute	38, 1	@ Tag_ABI_FP_16bit_format
	.eabi_attribute	18, 2	@ Tag_ABI_PCS_wchar_t
	.eabi_attribute	26, 1	@ Tag_ABI_enum_size
	.eabi_attribute	14, 0	@ Tag_ABI_PCS_R9_use
	.file	"esp8266.c"
	.file	1 "C:\\Users\\kcao3\\OneDrive\\Documents\\445L\\EE445L-SP22-Lab-4\\SW" "esp8266.c"
	.file	2 "C:\\" "Keil_v5\\ARM\\ARMCLANG\\Bin\\..\\include\\stdint.h"
	.section	.text.Rx5Fifo_Init,"ax",%progbits
	.hidden	Rx5Fifo_Init            @ -- Begin function Rx5Fifo_Init
	.globl	Rx5Fifo_Init
	.p2align	2
	.type	Rx5Fifo_Init,%function
	.code	16                      @ @Rx5Fifo_Init
	.thumb_func
Rx5Fifo_Init:
.Lfunc_begin0:
	.loc	1 78 0                  @ esp8266.c:78:0
	.fnstart
	.cfi_sections .debug_frame
	.cfi_startproc
@ %bb.0:
	.save	{r7, lr}
	push	{r7, lr}
	.cfi_def_cfa_offset 8
	.cfi_offset lr, -4
	.cfi_offset r7, -8
	.pad	#8
	sub	sp, #8
	.cfi_def_cfa_offset 16
.Ltmp0:
	.loc	1 79 8 prologue_end     @ esp8266.c:79:8
	bl	StartCritical
	.loc	1 79 6 is_stmt 0        @ esp8266.c:79:6
	str	r0, [sp, #4]
	.loc	1 80 31 is_stmt 1       @ esp8266.c:80:31
	movw	r0, :lower16:Rx5PutJ
	movt	r0, :upper16:Rx5PutJ
	movs	r1, #0
	str	r1, [r0]
	.loc	1 80 21 is_stmt 0       @ esp8266.c:80:21
	movw	r0, :lower16:Rx5GetI
	movt	r0, :upper16:Rx5GetI
	str	r1, [r0]
	.loc	1 80 11                 @ esp8266.c:80:11
	movw	r0, :lower16:Rx5PutI
	movt	r0, :upper16:Rx5PutI
	str	r1, [r0]
	.loc	1 81 15 is_stmt 1       @ esp8266.c:81:15
	ldr	r0, [sp, #4]
	.loc	1 81 3 is_stmt 0        @ esp8266.c:81:3
	bl	EndCritical
	.loc	1 82 1 is_stmt 1        @ esp8266.c:82:1
	add	sp, #8
	pop	{r7, pc}
.Ltmp1:
.Lfunc_end0:
	.size	Rx5Fifo_Init, .Lfunc_end0-Rx5Fifo_Init
	.cfi_endproc
	.cantunwind
	.fnend
                                        @ -- End function
	.section	.text.Rx5Fifo_Put,"ax",%progbits
	.hidden	Rx5Fifo_Put             @ -- Begin function Rx5Fifo_Put
	.globl	Rx5Fifo_Put
	.p2align	2
	.type	Rx5Fifo_Put,%function
	.code	16                      @ @Rx5Fifo_Put
	.thumb_func
Rx5Fifo_Put:
.Lfunc_begin1:
	.loc	1 85 0                  @ esp8266.c:85:0
	.fnstart
	.cfi_startproc
@ %bb.0:
	.save	{r7, lr}
	push	{r7, lr}
	.cfi_def_cfa_offset 8
	.cfi_offset lr, -4
	.cfi_offset r7, -8
	.pad	#8
	sub	sp, #8
	.cfi_def_cfa_offset 16
	mov	r1, r0
	strb.w	r0, [sp, #3]
.Ltmp2:
	.loc	1 86 7 prologue_end     @ esp8266.c:86:7
	movw	r0, :lower16:Rx5PutI
	movt	r0, :upper16:Rx5PutI
	ldr	r0, [r0]
	.loc	1 86 15 is_stmt 0       @ esp8266.c:86:15
	movw	r2, :lower16:Rx5GetI
	movt	r2, :upper16:Rx5GetI
	ldr	r2, [r2]
	.loc	1 86 14                 @ esp8266.c:86:14
	subs	r0, r0, r2
.Ltmp3:
	.loc	1 86 6                  @ esp8266.c:86:6
	lsrs	r0, r0, #3
	cmp	r0, #0
	beq	.LBB1_2
	b	.LBB1_1
.LBB1_1:
	.loc	1 0 6                   @ esp8266.c:0:6
	movs	r0, #0
.Ltmp4:
	.loc	1 87 5 is_stmt 1        @ esp8266.c:87:5
	str	r0, [sp, #4]
	b	.LBB1_7
.Ltmp5:
.LBB1_2:
	.loc	1 89 47                 @ esp8266.c:89:47
	ldrb.w	r0, [sp, #3]
	.loc	1 89 11 is_stmt 0       @ esp8266.c:89:11
	movw	r1, :lower16:Rx5PutI
	movt	r1, :upper16:Rx5PutI
	ldr	r1, [r1]
	.loc	1 89 18                 @ esp8266.c:89:18
	and	r1, r1, #7
	.loc	1 89 3                  @ esp8266.c:89:3
	movw	r2, :lower16:Rx5Fifo
	movt	r2, :upper16:Rx5Fifo
	add.w	r1, r2, r1, lsl #6
	.loc	1 89 36                 @ esp8266.c:89:36
	movw	r2, :lower16:Rx5PutJ
	movt	r2, :upper16:Rx5PutJ
	ldr	r2, [r2]
	.loc	1 89 45                 @ esp8266.c:89:45
	strb	r0, [r1, r2]
.Ltmp6:
	.loc	1 90 6 is_stmt 1        @ esp8266.c:90:6
	ldrb.w	r0, [sp, #3]
.Ltmp7:
	.loc	1 90 6 is_stmt 0        @ esp8266.c:90:6
	cmp	r0, #10
	beq	.LBB1_6
	b	.LBB1_3
.LBB1_3:
.Ltmp8:
	.loc	1 91 8 is_stmt 1        @ esp8266.c:91:8
	movw	r0, :lower16:Rx5PutJ
	movt	r0, :upper16:Rx5PutJ
	ldr	r0, [r0]
.Ltmp9:
	.loc	1 91 8 is_stmt 0        @ esp8266.c:91:8
	cmp	r0, #61
	bne	.LBB1_5
	b	.LBB1_4
.LBB1_4:
.Ltmp10:
	.loc	1 93 15 is_stmt 1       @ esp8266.c:93:15
	movw	r0, :lower16:Rx5PutI
	movt	r0, :upper16:Rx5PutI
	ldr	r1, [r0]
	.loc	1 93 22 is_stmt 0       @ esp8266.c:93:22
	and	r1, r1, #7
	.loc	1 93 7                  @ esp8266.c:93:7
	movw	r2, :lower16:Rx5Fifo
	movt	r2, :upper16:Rx5Fifo
	add.w	r1, r2, r1, lsl #6
	movs	r3, #44
	.loc	1 93 55                 @ esp8266.c:93:55
	strb.w	r3, [r1, #62]
	.loc	1 94 15 is_stmt 1       @ esp8266.c:94:15
	ldr	r1, [r0]
	.loc	1 94 22 is_stmt 0       @ esp8266.c:94:22
	and	r1, r1, #7
	.loc	1 94 7                  @ esp8266.c:94:7
	add.w	r1, r2, r1, lsl #6
	movs	r2, #10
	.loc	1 94 55                 @ esp8266.c:94:55
	strb.w	r2, [r1, #63]
	.loc	1 95 14 is_stmt 1       @ esp8266.c:95:14
	ldr	r1, [r0]
	adds	r1, #1
	str	r1, [r0]
	.loc	1 96 15                 @ esp8266.c:96:15
	movw	r0, :lower16:Rx5PutJ
	movt	r0, :upper16:Rx5PutJ
	movs	r1, #0
	str	r1, [r0]
	movs	r0, #1
	.loc	1 97 7                  @ esp8266.c:97:7
	str	r0, [sp, #4]
	b	.LBB1_7
.Ltmp11:
.LBB1_5:
	.loc	1 99 12                 @ esp8266.c:99:12
	movw	r0, :lower16:Rx5PutJ
	movt	r0, :upper16:Rx5PutJ
	ldr	r1, [r0]
	adds	r1, #1
	str	r1, [r0]
	movs	r0, #1
	.loc	1 100 5                 @ esp8266.c:100:5
	str	r0, [sp, #4]
	b	.LBB1_7
.Ltmp12:
.LBB1_6:
	.loc	1 102 11                @ esp8266.c:102:11
	movw	r0, :lower16:Rx5PutI
	movt	r0, :upper16:Rx5PutI
	ldr	r1, [r0]
	.loc	1 102 18 is_stmt 0      @ esp8266.c:102:18
	and	r1, r1, #7
	.loc	1 102 3                 @ esp8266.c:102:3
	movw	r2, :lower16:Rx5Fifo
	movt	r2, :upper16:Rx5Fifo
	add.w	r1, r2, r1, lsl #6
	.loc	1 102 36                @ esp8266.c:102:36
	movw	r3, :lower16:Rx5PutJ
	movt	r3, :upper16:Rx5PutJ
	ldr.w	r12, [r3]
	mov.w	lr, #44
	.loc	1 102 45                @ esp8266.c:102:45
	strb.w	lr, [r1, r12]
	.loc	1 103 11 is_stmt 1      @ esp8266.c:103:11
	ldr	r1, [r0]
	.loc	1 103 18 is_stmt 0      @ esp8266.c:103:18
	and	r1, r1, #7
	.loc	1 103 3                 @ esp8266.c:103:3
	add.w	r1, r2, r1, lsl #6
	.loc	1 103 36                @ esp8266.c:103:36
	ldr	r2, [r3]
	.loc	1 103 43                @ esp8266.c:103:43
	add	r1, r2
	movs	r2, #10
	.loc	1 103 47                @ esp8266.c:103:47
	strb	r2, [r1, #1]
	.loc	1 104 10 is_stmt 1      @ esp8266.c:104:10
	ldr	r1, [r0]
	adds	r1, #1
	str	r1, [r0]
	movs	r0, #0
	.loc	1 105 11                @ esp8266.c:105:11
	str	r0, [r3]
	movs	r0, #1
	.loc	1 106 3                 @ esp8266.c:106:3
	str	r0, [sp, #4]
	b	.LBB1_7
.LBB1_7:
	.loc	1 107 1                 @ esp8266.c:107:1
	ldr	r0, [sp, #4]
	add	sp, #8
	pop	{r7, pc}
.Ltmp13:
.Lfunc_end1:
	.size	Rx5Fifo_Put, .Lfunc_end1-Rx5Fifo_Put
	.cfi_endproc
	.cantunwind
	.fnend
                                        @ -- End function
	.section	.text.ESP8266_GetMessage,"ax",%progbits
	.hidden	ESP8266_GetMessage      @ -- Begin function ESP8266_GetMessage
	.globl	ESP8266_GetMessage
	.p2align	2
	.type	ESP8266_GetMessage,%function
	.code	16                      @ @ESP8266_GetMessage
	.thumb_func
ESP8266_GetMessage:
.Lfunc_begin2:
	.loc	1 113 0                 @ esp8266.c:113:0
	.fnstart
	.cfi_startproc
@ %bb.0:
	.pad	#20
	sub	sp, #20
	.cfi_def_cfa_offset 20
	str	r0, [sp, #12]
.Ltmp14:
	.loc	1 114 6 prologue_end    @ esp8266.c:114:6
	movw	r0, :lower16:Rx5PutI
	movt	r0, :upper16:Rx5PutI
	ldr	r0, [r0]
	.loc	1 114 17 is_stmt 0      @ esp8266.c:114:17
	movw	r1, :lower16:Rx5GetI
	movt	r1, :upper16:Rx5GetI
	ldr	r1, [r1]
.Ltmp15:
	.loc	1 114 6                 @ esp8266.c:114:6
	cmp	r0, r1
	bne	.LBB2_2
	b	.LBB2_1
.LBB2_1:
	.loc	1 0 6                   @ esp8266.c:0:6
	movs	r0, #0
.Ltmp16:
	.loc	1 115 5 is_stmt 1       @ esp8266.c:115:5
	str	r0, [sp, #16]
	b	.LBB2_8
.Ltmp17:
.LBB2_2:
	.loc	1 0 5 is_stmt 0         @ esp8266.c:0:5
	movs	r0, #0
	.loc	1 117 5 is_stmt 1       @ esp8266.c:117:5
	str	r0, [sp, #4]
	.loc	1 118 3                 @ esp8266.c:118:3
	b	.LBB2_3
.LBB2_3:                                @ =>This Inner Loop Header: Depth=1
.Ltmp18:
	.loc	1 119 20                @ esp8266.c:119:20
	movw	r0, :lower16:Rx5GetI
	movt	r0, :upper16:Rx5GetI
	ldr	r0, [r0]
	.loc	1 119 27 is_stmt 0      @ esp8266.c:119:27
	and	r0, r0, #7
	.loc	1 119 12                @ esp8266.c:119:12
	movw	r1, :lower16:Rx5Fifo
	movt	r1, :upper16:Rx5Fifo
	add.w	r0, r1, r0, lsl #6
	.loc	1 119 45                @ esp8266.c:119:45
	ldr	r1, [sp, #4]
	.loc	1 119 12                @ esp8266.c:119:12
	ldrb	r0, [r0, r1]
	.loc	1 119 10                @ esp8266.c:119:10
	strb.w	r0, [sp, #11]
	.loc	1 120 17 is_stmt 1      @ esp8266.c:120:17
	ldrb.w	r0, [sp, #11]
	.loc	1 120 5 is_stmt 0       @ esp8266.c:120:5
	ldr	r1, [sp, #12]
	.loc	1 120 12                @ esp8266.c:120:12
	ldr	r2, [sp, #4]
	.loc	1 120 15                @ esp8266.c:120:15
	strb	r0, [r1, r2]
	.loc	1 121 6 is_stmt 1       @ esp8266.c:121:6
	ldr	r0, [sp, #4]
	adds	r0, #1
	str	r0, [sp, #4]
	.loc	1 122 3                 @ esp8266.c:122:3
	b	.LBB2_4
.Ltmp19:
.LBB2_4:                                @   in Loop: Header=BB2_3 Depth=1
	.loc	1 122 11 is_stmt 0      @ esp8266.c:122:11
	ldr	r0, [sp, #4]
	movs	r1, #0
	.loc	1 122 25                @ esp8266.c:122:25
	cmp	r0, #63
	str	r1, [sp]                @ 4-byte Spill
	bgt	.LBB2_6
	b	.LBB2_5
.LBB2_5:                                @   in Loop: Header=BB2_3 Depth=1
	.loc	1 122 28                @ esp8266.c:122:28
	ldrb.w	r0, [sp, #11]
	.loc	1 122 33                @ esp8266.c:122:33
	subs	r0, #10
	it	ne
	movne	r0, #1
	str	r0, [sp]                @ 4-byte Spill
	b	.LBB2_6
.LBB2_6:                                @   in Loop: Header=BB2_3 Depth=1
	.loc	1 0 0                   @ esp8266.c:0:0
	ldr	r0, [sp]                @ 4-byte Reload
.Ltmp20:
	.loc	1 122 3                 @ esp8266.c:122:3
	lsls	r0, r0, #31
	cmp	r0, #0
	bne	.LBB2_3
	b	.LBB2_7
.Ltmp21:
.LBB2_7:
	.loc	1 123 10 is_stmt 1      @ esp8266.c:123:10
	movw	r0, :lower16:Rx5GetI
	movt	r0, :upper16:Rx5GetI
	ldr	r1, [r0]
	adds	r1, #1
	str	r1, [r0]
	movs	r0, #1
	.loc	1 124 3                 @ esp8266.c:124:3
	str	r0, [sp, #16]
	b	.LBB2_8
.LBB2_8:
	.loc	1 125 1                 @ esp8266.c:125:1
	ldr	r0, [sp, #16]
	add	sp, #20
	bx	lr
.Ltmp22:
.Lfunc_end2:
	.size	ESP8266_GetMessage, .Lfunc_end2-ESP8266_GetMessage
	.cfi_endproc
	.cantunwind
	.fnend
                                        @ -- End function
	.section	.text.Rx5Fifo_Size,"ax",%progbits
	.hidden	Rx5Fifo_Size            @ -- Begin function Rx5Fifo_Size
	.globl	Rx5Fifo_Size
	.p2align	2
	.type	Rx5Fifo_Size,%function
	.code	16                      @ @Rx5Fifo_Size
	.thumb_func
Rx5Fifo_Size:
.Lfunc_begin3:
	.loc	1 128 0                 @ esp8266.c:128:0
	.fnstart
	.cfi_startproc
@ %bb.0:
	.loc	1 129 21 prologue_end   @ esp8266.c:129:21
	movw	r0, :lower16:Rx5PutI
	movt	r0, :upper16:Rx5PutI
	ldr	r0, [r0]
	.loc	1 129 29 is_stmt 0      @ esp8266.c:129:29
	movw	r1, :lower16:Rx5GetI
	movt	r1, :upper16:Rx5GetI
	ldr	r1, [r1]
	.loc	1 129 28                @ esp8266.c:129:28
	subs	r0, r0, r1
	.loc	1 129 2                 @ esp8266.c:129:2
	bx	lr
.Ltmp23:
.Lfunc_end3:
	.size	Rx5Fifo_Size, .Lfunc_end3-Rx5Fifo_Size
	.cfi_endproc
	.cantunwind
	.fnend
                                        @ -- End function
	.section	.text.Tx5Fifo_Init,"ax",%progbits
	.hidden	Tx5Fifo_Init            @ -- Begin function Tx5Fifo_Init
	.globl	Tx5Fifo_Init
	.p2align	2
	.type	Tx5Fifo_Init,%function
	.code	16                      @ @Tx5Fifo_Init
	.thumb_func
Tx5Fifo_Init:
.Lfunc_begin4:
	.loc	1 140 0 is_stmt 1       @ esp8266.c:140:0
	.fnstart
	.cfi_startproc
@ %bb.0:
	.save	{r7, lr}
	push	{r7, lr}
	.cfi_def_cfa_offset 8
	.cfi_offset lr, -4
	.cfi_offset r7, -8
	.pad	#8
	sub	sp, #8
	.cfi_def_cfa_offset 16
.Ltmp24:
	.loc	1 141 8 prologue_end    @ esp8266.c:141:8
	bl	StartCritical
	.loc	1 141 6 is_stmt 0       @ esp8266.c:141:6
	str	r0, [sp, #4]
	.loc	1 142 21 is_stmt 1      @ esp8266.c:142:21
	movw	r0, :lower16:Tx5GetI
	movt	r0, :upper16:Tx5GetI
	movs	r1, #0
	str	r1, [r0]
	.loc	1 142 11 is_stmt 0      @ esp8266.c:142:11
	movw	r0, :lower16:Tx5PutI
	movt	r0, :upper16:Tx5PutI
	str	r1, [r0]
	.loc	1 143 15 is_stmt 1      @ esp8266.c:143:15
	ldr	r0, [sp, #4]
	.loc	1 143 3 is_stmt 0       @ esp8266.c:143:3
	bl	EndCritical
	.loc	1 144 1 is_stmt 1       @ esp8266.c:144:1
	add	sp, #8
	pop	{r7, pc}
.Ltmp25:
.Lfunc_end4:
	.size	Tx5Fifo_Init, .Lfunc_end4-Tx5Fifo_Init
	.cfi_endproc
	.cantunwind
	.fnend
                                        @ -- End function
	.section	.text.Tx5Fifo_Put,"ax",%progbits
	.hidden	Tx5Fifo_Put             @ -- Begin function Tx5Fifo_Put
	.globl	Tx5Fifo_Put
	.p2align	2
	.type	Tx5Fifo_Put,%function
	.code	16                      @ @Tx5Fifo_Put
	.thumb_func
Tx5Fifo_Put:
.Lfunc_begin5:
	.loc	1 147 0                 @ esp8266.c:147:0
	.fnstart
	.cfi_startproc
@ %bb.0:
	.pad	#8
	sub	sp, #8
	.cfi_def_cfa_offset 8
	mov	r1, r0
	strb.w	r0, [sp, #3]
.Ltmp26:
	.loc	1 148 7 prologue_end    @ esp8266.c:148:7
	movw	r0, :lower16:Tx5PutI
	movt	r0, :upper16:Tx5PutI
	ldr	r0, [r0]
	.loc	1 148 15 is_stmt 0      @ esp8266.c:148:15
	movw	r2, :lower16:Tx5GetI
	movt	r2, :upper16:Tx5GetI
	ldr	r2, [r2]
	.loc	1 148 14                @ esp8266.c:148:14
	subs	r0, r0, r2
.Ltmp27:
	.loc	1 148 6                 @ esp8266.c:148:6
	lsrs	r0, r0, #8
	cmp	r0, #0
	beq	.LBB5_2
	b	.LBB5_1
.LBB5_1:
	.loc	1 0 6                   @ esp8266.c:0:6
	movs	r0, #0
.Ltmp28:
	.loc	1 149 5 is_stmt 1       @ esp8266.c:149:5
	str	r0, [sp, #4]
	b	.LBB5_3
.Ltmp29:
.LBB5_2:
	.loc	1 151 38                @ esp8266.c:151:38
	ldrb.w	r0, [sp, #3]
	.loc	1 151 11 is_stmt 0      @ esp8266.c:151:11
	movw	r1, :lower16:Tx5PutI
	movt	r1, :upper16:Tx5PutI
	ldr	r2, [r1]
	.loc	1 151 18                @ esp8266.c:151:18
	uxtb	r2, r2
	.loc	1 151 3                 @ esp8266.c:151:3
	movw	r3, :lower16:Tx5Fifo
	movt	r3, :upper16:Tx5Fifo
	.loc	1 151 36                @ esp8266.c:151:36
	strb	r0, [r3, r2]
	.loc	1 152 10 is_stmt 1      @ esp8266.c:152:10
	ldr	r0, [r1]
	adds	r0, #1
	str	r0, [r1]
	movs	r0, #1
	.loc	1 153 3                 @ esp8266.c:153:3
	str	r0, [sp, #4]
	b	.LBB5_3
.LBB5_3:
	.loc	1 154 1                 @ esp8266.c:154:1
	ldr	r0, [sp, #4]
	add	sp, #8
	bx	lr
.Ltmp30:
.Lfunc_end5:
	.size	Tx5Fifo_Put, .Lfunc_end5-Tx5Fifo_Put
	.cfi_endproc
	.cantunwind
	.fnend
                                        @ -- End function
	.section	.text.Tx5Fifo_Get,"ax",%progbits
	.hidden	Tx5Fifo_Get             @ -- Begin function Tx5Fifo_Get
	.globl	Tx5Fifo_Get
	.p2align	2
	.type	Tx5Fifo_Get,%function
	.code	16                      @ @Tx5Fifo_Get
	.thumb_func
Tx5Fifo_Get:
.Lfunc_begin6:
	.loc	1 157 0                 @ esp8266.c:157:0
	.fnstart
	.cfi_startproc
@ %bb.0:
	.pad	#8
	sub	sp, #8
	.cfi_def_cfa_offset 8
	str	r0, [sp]
.Ltmp31:
	.loc	1 158 6 prologue_end    @ esp8266.c:158:6
	movw	r0, :lower16:Tx5PutI
	movt	r0, :upper16:Tx5PutI
	ldr	r0, [r0]
	.loc	1 158 17 is_stmt 0      @ esp8266.c:158:17
	movw	r1, :lower16:Tx5GetI
	movt	r1, :upper16:Tx5GetI
	ldr	r1, [r1]
.Ltmp32:
	.loc	1 158 6                 @ esp8266.c:158:6
	cmp	r0, r1
	bne	.LBB6_2
	b	.LBB6_1
.LBB6_1:
	.loc	1 0 6                   @ esp8266.c:0:6
	movs	r0, #0
.Ltmp33:
	.loc	1 159 5 is_stmt 1       @ esp8266.c:159:5
	str	r0, [sp, #4]
	b	.LBB6_3
.Ltmp34:
.LBB6_2:
	.loc	1 161 21                @ esp8266.c:161:21
	movw	r0, :lower16:Tx5GetI
	movt	r0, :upper16:Tx5GetI
	ldr	r1, [r0]
	.loc	1 161 28 is_stmt 0      @ esp8266.c:161:28
	uxtb	r1, r1
	.loc	1 161 13                @ esp8266.c:161:13
	movw	r2, :lower16:Tx5Fifo
	movt	r2, :upper16:Tx5Fifo
	ldrb	r1, [r2, r1]
	.loc	1 161 4                 @ esp8266.c:161:4
	ldr	r2, [sp]
	.loc	1 161 11                @ esp8266.c:161:11
	strb	r1, [r2]
	.loc	1 162 10 is_stmt 1      @ esp8266.c:162:10
	ldr	r1, [r0]
	adds	r1, #1
	str	r1, [r0]
	movs	r0, #1
	.loc	1 163 3                 @ esp8266.c:163:3
	str	r0, [sp, #4]
	b	.LBB6_3
.LBB6_3:
	.loc	1 164 1                 @ esp8266.c:164:1
	ldr	r0, [sp, #4]
	add	sp, #8
	bx	lr
.Ltmp35:
.Lfunc_end6:
	.size	Tx5Fifo_Get, .Lfunc_end6-Tx5Fifo_Get
	.cfi_endproc
	.cantunwind
	.fnend
                                        @ -- End function
	.section	.text.Tx5Fifo_Size,"ax",%progbits
	.hidden	Tx5Fifo_Size            @ -- Begin function Tx5Fifo_Size
	.globl	Tx5Fifo_Size
	.p2align	2
	.type	Tx5Fifo_Size,%function
	.code	16                      @ @Tx5Fifo_Size
	.thumb_func
Tx5Fifo_Size:
.Lfunc_begin7:
	.loc	1 167 0                 @ esp8266.c:167:0
	.fnstart
	.cfi_startproc
@ %bb.0:
	.loc	1 168 26 prologue_end   @ esp8266.c:168:26
	movw	r0, :lower16:Tx5PutI
	movt	r0, :upper16:Tx5PutI
	ldr	r0, [r0]
	.loc	1 168 34 is_stmt 0      @ esp8266.c:168:34
	movw	r1, :lower16:Tx5GetI
	movt	r1, :upper16:Tx5GetI
	ldr	r1, [r1]
	.loc	1 168 33                @ esp8266.c:168:33
	subs	r0, r0, r1
	.loc	1 168 2                 @ esp8266.c:168:2
	bx	lr
.Ltmp36:
.Lfunc_end7:
	.size	Tx5Fifo_Size, .Lfunc_end7-Tx5Fifo_Size
	.cfi_endproc
	.cantunwind
	.fnend
                                        @ -- End function
	.section	.text.UART5_Init,"ax",%progbits
	.hidden	UART5_Init              @ -- Begin function UART5_Init
	.globl	UART5_Init
	.p2align	2
	.type	UART5_Init,%function
	.code	16                      @ @UART5_Init
	.thumb_func
UART5_Init:
.Lfunc_begin8:
	.loc	1 178 0 is_stmt 1       @ esp8266.c:178:0
	.fnstart
	.cfi_startproc
@ %bb.0:
	.save	{r7, lr}
	push	{r7, lr}
	.cfi_def_cfa_offset 8
	.cfi_offset lr, -4
	.cfi_offset r7, -8
	.pad	#8
	sub	sp, #8
	.cfi_def_cfa_offset 16
	str	r0, [sp, #4]
.Ltmp37:
	.loc	1 179 6 prologue_end    @ esp8266.c:179:6
	ldr	r0, [sp, #4]
.Ltmp38:
	.loc	1 179 6 is_stmt 0       @ esp8266.c:179:6
	cmp	r0, #8
	blo	.LBB8_2
	b	.LBB8_1
.LBB8_1:
	.loc	1 0 6                   @ esp8266.c:0:6
	movs	r0, #7
.Ltmp39:
	.loc	1 180 14 is_stmt 1      @ esp8266.c:180:14
	str	r0, [sp, #4]
	.loc	1 181 3                 @ esp8266.c:181:3
	b	.LBB8_2
.Ltmp40:
.LBB8_2:
	.loc	1 0 3 is_stmt 0         @ esp8266.c:0:3
	movw	r0, #58904
	movt	r0, #16399
	.loc	1 182 21 is_stmt 1      @ esp8266.c:182:21
	ldr	r1, [r0]
	orr	r1, r1, #32
	str	r1, [r0]
	movw	r0, #58888
	movt	r0, #16399
	.loc	1 183 21                @ esp8266.c:183:21
	ldr	r1, [r0]
	orr	r1, r1, #16
	str	r1, [r0]
	.loc	1 184 3                 @ esp8266.c:184:3
	bl	Rx5Fifo_Init
	.loc	1 185 3                 @ esp8266.c:185:3
	bl	Tx5Fifo_Init
	movw	r0, #4144
	movt	r0, #16385
	.loc	1 186 15                @ esp8266.c:186:15
	ldr	r1, [r0]
	bic	r1, r1, #1
	str	r1, [r0]
	movw	r1, #4132
	movt	r1, #16385
	mov.w	r2, #520
	.loc	1 188 16                @ esp8266.c:188:16
	str	r2, [r1]
	movw	r1, #4136
	movt	r1, #16385
	movs	r2, #53
	.loc	1 189 16                @ esp8266.c:189:16
	str	r2, [r1]
	movw	r1, #4140
	movt	r1, #16385
	movs	r2, #112
	.loc	1 191 16                @ esp8266.c:191:16
	str	r2, [r1]
	movw	r1, #4148
	movt	r1, #16385
	.loc	1 192 16                @ esp8266.c:192:16
	ldr	r2, [r1]
	bic	r2, r2, #63
	str	r2, [r1]
	.loc	1 195 16                @ esp8266.c:195:16
	ldr	r2, [r1]
	str	r2, [r1]
	movw	r1, #4152
	movt	r1, #16385
	.loc	1 197 14                @ esp8266.c:197:14
	ldr	r2, [r1]
	orr	r2, r2, #112
	str	r2, [r1]
	.loc	1 198 15                @ esp8266.c:198:15
	ldr	r1, [r0]
	orr	r1, r1, #1
	str	r1, [r0]
	movw	r0, #17440
	movt	r0, #16386
	.loc	1 199 22                @ esp8266.c:199:22
	ldr	r1, [r0]
	orr	r1, r1, #48
	str	r1, [r0]
	movw	r0, #17692
	movt	r0, #16386
	.loc	1 200 20                @ esp8266.c:200:20
	ldr	r1, [r0]
	orr	r1, r1, #48
	str	r1, [r0]
	movw	r0, #17708
	movt	r0, #16386
	.loc	1 202 24                @ esp8266.c:202:24
	ldr	r1, [r0]
	movs	r2, #17
	.loc	1 202 53 is_stmt 0      @ esp8266.c:202:53
	bfi	r1, r2, #16, #8
	.loc	1 202 21                @ esp8266.c:202:21
	str	r1, [r0]
	movw	r0, #17704
	movt	r0, #16386
	.loc	1 203 22 is_stmt 1      @ esp8266.c:203:22
	ldr	r1, [r0]
	bic	r1, r1, #48
	str	r1, [r0]
	movw	r0, #58428
	movt	r0, #57344
	.loc	1 205 19                @ esp8266.c:205:19
	ldr	r1, [r0]
	.loc	1 205 31 is_stmt 0      @ esp8266.c:205:31
	bic	r1, r1, #65280
	.loc	1 205 45                @ esp8266.c:205:45
	ldr	r2, [sp, #4]
	.loc	1 205 43                @ esp8266.c:205:43
	orr.w	r1, r1, r2, lsl #13
	.loc	1 205 16                @ esp8266.c:205:16
	str	r1, [r0]
	movw	r0, #57604
	movt	r0, #57344
	mov.w	r1, #536870912
	.loc	1 207 14 is_stmt 1      @ esp8266.c:207:14
	str	r1, [r0]
	.loc	1 208 1                 @ esp8266.c:208:1
	add	sp, #8
	pop	{r7, pc}
.Ltmp41:
.Lfunc_end8:
	.size	UART5_Init, .Lfunc_end8-UART5_Init
	.cfi_endproc
	.cantunwind
	.fnend
                                        @ -- End function
	.section	.text.ESP8266_AvailableInput,"ax",%progbits
	.hidden	ESP8266_AvailableInput  @ -- Begin function ESP8266_AvailableInput
	.globl	ESP8266_AvailableInput
	.p2align	2
	.type	ESP8266_AvailableInput,%function
	.code	16                      @ @ESP8266_AvailableInput
	.thumb_func
ESP8266_AvailableInput:
.Lfunc_begin9:
	.loc	1 231 0                 @ esp8266.c:231:0
	.fnstart
	.cfi_startproc
@ %bb.0:
	.save	{r7, lr}
	push	{r7, lr}
	.cfi_def_cfa_offset 8
	.cfi_offset lr, -4
	.cfi_offset r7, -8
.Ltmp42:
	.loc	1 232 10 prologue_end   @ esp8266.c:232:10
	bl	Rx5Fifo_Size
	.loc	1 232 3 is_stmt 0       @ esp8266.c:232:3
	pop	{r7, pc}
.Ltmp43:
.Lfunc_end9:
	.size	ESP8266_AvailableInput, .Lfunc_end9-ESP8266_AvailableInput
	.cfi_endproc
	.cantunwind
	.fnend
                                        @ -- End function
	.section	.text.ESP8266_OutChar,"ax",%progbits
	.hidden	ESP8266_OutChar         @ -- Begin function ESP8266_OutChar
	.globl	ESP8266_OutChar
	.p2align	2
	.type	ESP8266_OutChar,%function
	.code	16                      @ @ESP8266_OutChar
	.thumb_func
ESP8266_OutChar:
.Lfunc_begin10:
	.loc	1 236 0 is_stmt 1       @ esp8266.c:236:0
	.fnstart
	.cfi_startproc
@ %bb.0:
	.save	{r7, lr}
	push	{r7, lr}
	.cfi_def_cfa_offset 8
	.cfi_offset lr, -4
	.cfi_offset r7, -8
	.pad	#8
	sub	sp, #8
	.cfi_def_cfa_offset 16
	mov	r1, r0
	strb.w	r0, [sp, #7]
.Ltmp44:
	.loc	1 237 3 prologue_end    @ esp8266.c:237:3
	b	.LBB10_1
.LBB10_1:                               @ =>This Inner Loop Header: Depth=1
	.loc	1 237 21 is_stmt 0      @ esp8266.c:237:21
	ldrb.w	r0, [sp, #7]
	.loc	1 237 9                 @ esp8266.c:237:9
	bl	Tx5Fifo_Put
	.loc	1 237 3                 @ esp8266.c:237:3
	cmp	r0, #0
	bne	.LBB10_3
	b	.LBB10_2
.LBB10_2:                               @   in Loop: Header=BB10_1 Depth=1
	b	.LBB10_1
.LBB10_3:
	.loc	1 0 3                   @ esp8266.c:0:3
	movw	r0, #4152
	movt	r0, #16385
	.loc	1 238 14 is_stmt 1      @ esp8266.c:238:14
	ldr	r1, [r0]
	bic	r1, r1, #32
	str	r1, [r0]
	.loc	1 239 3                 @ esp8266.c:239:3
	str	r0, [sp]                @ 4-byte Spill
	bl	copySoftwareToHardware5
	.loc	1 240 14                @ esp8266.c:240:14
	ldr	r0, [sp]                @ 4-byte Reload
	ldr	r1, [r0]
	orr	r1, r1, #32
	str	r1, [r0]
	.loc	1 241 1                 @ esp8266.c:241:1
	add	sp, #8
	pop	{r7, pc}
.Ltmp45:
.Lfunc_end10:
	.size	ESP8266_OutChar, .Lfunc_end10-ESP8266_OutChar
	.cfi_endproc
	.cantunwind
	.fnend
                                        @ -- End function
	.section	.text.copySoftwareToHardware5,"ax",%progbits
	.p2align	2               @ -- Begin function copySoftwareToHardware5
	.type	copySoftwareToHardware5,%function
	.code	16                      @ @copySoftwareToHardware5
	.thumb_func
copySoftwareToHardware5:
.Lfunc_begin11:
	.loc	1 221 0                 @ esp8266.c:221:0
	.fnstart
	.cfi_startproc
@ %bb.0:
	.save	{r7, lr}
	push	{r7, lr}
	.cfi_def_cfa_offset 8
	.cfi_offset lr, -4
	.cfi_offset r7, -8
	.pad	#8
	sub	sp, #8
	.cfi_def_cfa_offset 16
.Ltmp46:
	.loc	1 223 3 prologue_end    @ esp8266.c:223:3
	b	.LBB11_1
.LBB11_1:                               @ =>This Inner Loop Header: Depth=1
	.loc	1 0 3 is_stmt 0         @ esp8266.c:0:3
	movw	r0, #4120
	movt	r0, #16385
	.loc	1 223 11                @ esp8266.c:223:11
	ldr	r0, [r0]
	movs	r1, #0
	.loc	1 223 42                @ esp8266.c:223:42
	lsls	r0, r0, #26
	cmp	r0, #0
	str	r1, [sp]                @ 4-byte Spill
	bmi	.LBB11_3
	b	.LBB11_2
.LBB11_2:                               @   in Loop: Header=BB11_1 Depth=1
	.loc	1 223 46                @ esp8266.c:223:46
	bl	Tx5Fifo_Size
	.loc	1 223 61                @ esp8266.c:223:61
	cmp	r0, #0
	it	ne
	movne	r0, #1
	str	r0, [sp]                @ 4-byte Spill
	b	.LBB11_3
.LBB11_3:                               @   in Loop: Header=BB11_1 Depth=1
	.loc	1 0 0                   @ esp8266.c:0:0
	ldr	r0, [sp]                @ 4-byte Reload
	.loc	1 223 3                 @ esp8266.c:223:3
	lsls	r0, r0, #31
	cmp	r0, #0
	beq	.LBB11_5
	b	.LBB11_4
.LBB11_4:                               @   in Loop: Header=BB11_1 Depth=1
	.loc	1 0 3                   @ esp8266.c:0:3
	add.w	r0, sp, #7
.Ltmp47:
	.loc	1 224 5 is_stmt 1       @ esp8266.c:224:5
	bl	Tx5Fifo_Get
	.loc	1 225 18                @ esp8266.c:225:18
	ldrb.w	r1, [sp, #7]
	movw	r2, #4096
	movt	r2, #16385
	.loc	1 225 16 is_stmt 0      @ esp8266.c:225:16
	str	r1, [r2]
.Ltmp48:
	.loc	1 223 3 is_stmt 1       @ esp8266.c:223:3
	b	.LBB11_1
.LBB11_5:
	.loc	1 227 1                 @ esp8266.c:227:1
	add	sp, #8
	pop	{r7, pc}
.Ltmp49:
.Lfunc_end11:
	.size	copySoftwareToHardware5, .Lfunc_end11-copySoftwareToHardware5
	.cfi_endproc
	.cantunwind
	.fnend
                                        @ -- End function
	.section	.text.UART5_Handler,"ax",%progbits
	.hidden	UART5_Handler           @ -- Begin function UART5_Handler
	.globl	UART5_Handler
	.p2align	2
	.type	UART5_Handler,%function
	.code	16                      @ @UART5_Handler
	.thumb_func
UART5_Handler:
.Lfunc_begin12:
	.loc	1 246 0                 @ esp8266.c:246:0
	.fnstart
	.cfi_startproc
@ %bb.0:
	.save	{r7, lr}
	push	{r7, lr}
	.cfi_def_cfa_offset 8
	.cfi_offset lr, -4
	.cfi_offset r7, -8
	movw	r0, #4156
	movt	r0, #16385
.Ltmp50:
	.loc	1 247 6 prologue_end    @ esp8266.c:247:6
	ldr	r0, [r0]
.Ltmp51:
	.loc	1 247 6 is_stmt 0       @ esp8266.c:247:6
	lsls	r0, r0, #26
	cmp	r0, #0
	bpl	.LBB12_4
	b	.LBB12_1
.LBB12_1:
	.loc	1 0 6                   @ esp8266.c:0:6
	movw	r0, #4164
	movt	r0, #16385
	movs	r1, #32
.Ltmp52:
	.loc	1 248 17 is_stmt 1      @ esp8266.c:248:17
	str	r1, [r0]
	.loc	1 250 5                 @ esp8266.c:250:5
	bl	copySoftwareToHardware5
.Ltmp53:
	.loc	1 251 8                 @ esp8266.c:251:8
	bl	Tx5Fifo_Size
.Ltmp54:
	.loc	1 251 8 is_stmt 0       @ esp8266.c:251:8
	cmp	r0, #0
	bne	.LBB12_3
	b	.LBB12_2
.LBB12_2:
	.loc	1 0 8                   @ esp8266.c:0:8
	movw	r0, #4152
	movt	r0, #16385
.Ltmp55:
	.loc	1 252 18 is_stmt 1      @ esp8266.c:252:18
	ldr	r1, [r0]
	bic	r1, r1, #32
	str	r1, [r0]
	.loc	1 253 5                 @ esp8266.c:253:5
	b	.LBB12_3
.Ltmp56:
.LBB12_3:
	.loc	1 254 3                 @ esp8266.c:254:3
	b	.LBB12_4
.Ltmp57:
.LBB12_4:
	.loc	1 0 3 is_stmt 0         @ esp8266.c:0:3
	movw	r0, #4156
	movt	r0, #16385
.Ltmp58:
	.loc	1 255 6 is_stmt 1       @ esp8266.c:255:6
	ldr	r0, [r0]
.Ltmp59:
	.loc	1 255 6 is_stmt 0       @ esp8266.c:255:6
	lsls	r0, r0, #27
	cmp	r0, #0
	bpl	.LBB12_6
	b	.LBB12_5
.LBB12_5:
	.loc	1 0 6                   @ esp8266.c:0:6
	movw	r0, #4164
	movt	r0, #16385
	movs	r1, #16
.Ltmp60:
	.loc	1 256 17 is_stmt 1      @ esp8266.c:256:17
	str	r1, [r0]
	.loc	1 258 5                 @ esp8266.c:258:5
	bl	copyHardwareToSoftware5
	.loc	1 259 3                 @ esp8266.c:259:3
	b	.LBB12_6
.Ltmp61:
.LBB12_6:
	.loc	1 0 3 is_stmt 0         @ esp8266.c:0:3
	movw	r0, #4156
	movt	r0, #16385
.Ltmp62:
	.loc	1 260 6 is_stmt 1       @ esp8266.c:260:6
	ldr	r0, [r0]
.Ltmp63:
	.loc	1 260 6 is_stmt 0       @ esp8266.c:260:6
	lsls	r0, r0, #25
	cmp	r0, #0
	bpl	.LBB12_8
	b	.LBB12_7
.LBB12_7:
	.loc	1 0 6                   @ esp8266.c:0:6
	movw	r0, #4164
	movt	r0, #16385
	movs	r1, #64
.Ltmp64:
	.loc	1 261 17 is_stmt 1      @ esp8266.c:261:17
	str	r1, [r0]
	.loc	1 263 5                 @ esp8266.c:263:5
	bl	copyHardwareToSoftware5
	.loc	1 264 3                 @ esp8266.c:264:3
	b	.LBB12_8
.Ltmp65:
.LBB12_8:
	.loc	1 265 1                 @ esp8266.c:265:1
	pop	{r7, pc}
.Ltmp66:
.Lfunc_end12:
	.size	UART5_Handler, .Lfunc_end12-UART5_Handler
	.cfi_endproc
	.cantunwind
	.fnend
                                        @ -- End function
	.section	.text.copyHardwareToSoftware5,"ax",%progbits
	.p2align	2               @ -- Begin function copyHardwareToSoftware5
	.type	copyHardwareToSoftware5,%function
	.code	16                      @ @copyHardwareToSoftware5
	.thumb_func
copyHardwareToSoftware5:
.Lfunc_begin13:
	.loc	1 212 0                 @ esp8266.c:212:0
	.fnstart
	.cfi_startproc
@ %bb.0:
	.save	{r7, lr}
	push	{r7, lr}
	.cfi_def_cfa_offset 8
	.cfi_offset lr, -4
	.cfi_offset r7, -8
	.pad	#8
	sub	sp, #8
	.cfi_def_cfa_offset 16
.Ltmp67:
	.loc	1 214 3 prologue_end    @ esp8266.c:214:3
	b	.LBB13_1
.LBB13_1:                               @ =>This Inner Loop Header: Depth=1
	.loc	1 0 3 is_stmt 0         @ esp8266.c:0:3
	movw	r0, #4120
	movt	r0, #16385
	.loc	1 214 11                @ esp8266.c:214:11
	ldr	r0, [r0]
	movs	r1, #0
	.loc	1 214 42                @ esp8266.c:214:42
	lsls	r0, r0, #27
	cmp	r0, #0
	str	r1, [sp]                @ 4-byte Spill
	bmi	.LBB13_3
	b	.LBB13_2
.LBB13_2:                               @   in Loop: Header=BB13_1 Depth=1
	.loc	1 214 46                @ esp8266.c:214:46
	bl	Rx5Fifo_Size
	movs	r1, #0
	.loc	1 214 61                @ esp8266.c:214:61
	cmp	r0, #7
	it	lo
	movlo	r1, #1
	str	r1, [sp]                @ 4-byte Spill
	b	.LBB13_3
.LBB13_3:                               @   in Loop: Header=BB13_1 Depth=1
	.loc	1 0 0                   @ esp8266.c:0:0
	ldr	r0, [sp]                @ 4-byte Reload
	.loc	1 214 3                 @ esp8266.c:214:3
	lsls	r0, r0, #31
	cmp	r0, #0
	beq	.LBB13_5
	b	.LBB13_4
.LBB13_4:                               @   in Loop: Header=BB13_1 Depth=1
	.loc	1 0 3                   @ esp8266.c:0:3
	movw	r0, #4096
	movt	r0, #16385
.Ltmp68:
	.loc	1 215 14 is_stmt 1      @ esp8266.c:215:14
	ldr	r0, [r0]
	.loc	1 215 12 is_stmt 0      @ esp8266.c:215:12
	strb.w	r0, [sp, #7]
	.loc	1 216 17 is_stmt 1      @ esp8266.c:216:17
	ldrb.w	r0, [sp, #7]
	.loc	1 216 5 is_stmt 0       @ esp8266.c:216:5
	bl	Rx5Fifo_Put
.Ltmp69:
	.loc	1 214 3 is_stmt 1       @ esp8266.c:214:3
	b	.LBB13_1
.LBB13_5:
	.loc	1 218 1                 @ esp8266.c:218:1
	add	sp, #8
	pop	{r7, pc}
.Ltmp70:
.Lfunc_end13:
	.size	copyHardwareToSoftware5, .Lfunc_end13-copyHardwareToSoftware5
	.cfi_endproc
	.cantunwind
	.fnend
                                        @ -- End function
	.section	.text.ESP8266_OutString,"ax",%progbits
	.hidden	ESP8266_OutString       @ -- Begin function ESP8266_OutString
	.globl	ESP8266_OutString
	.p2align	2
	.type	ESP8266_OutString,%function
	.code	16                      @ @ESP8266_OutString
	.thumb_func
ESP8266_OutString:
.Lfunc_begin14:
	.loc	1 271 0                 @ esp8266.c:271:0
	.fnstart
	.cfi_startproc
@ %bb.0:
	.save	{r7, lr}
	push	{r7, lr}
	.cfi_def_cfa_offset 8
	.cfi_offset lr, -4
	.cfi_offset r7, -8
	.pad	#8
	sub	sp, #8
	.cfi_def_cfa_offset 16
	str	r0, [sp, #4]
.Ltmp71:
	.loc	1 272 3 prologue_end    @ esp8266.c:272:3
	b	.LBB14_1
.LBB14_1:                               @ =>This Inner Loop Header: Depth=1
	.loc	1 272 10 is_stmt 0      @ esp8266.c:272:10
	ldr	r0, [sp, #4]
	.loc	1 272 9                 @ esp8266.c:272:9
	ldrb	r0, [r0]
	.loc	1 272 3                 @ esp8266.c:272:3
	cmp	r0, #0
	beq	.LBB14_3
	b	.LBB14_2
.LBB14_2:                               @   in Loop: Header=BB14_1 Depth=1
.Ltmp72:
	.loc	1 273 22 is_stmt 1      @ esp8266.c:273:22
	ldr	r0, [sp, #4]
	.loc	1 273 21 is_stmt 0      @ esp8266.c:273:21
	ldrb	r0, [r0]
	.loc	1 273 5                 @ esp8266.c:273:5
	bl	ESP8266_OutChar
	.loc	1 274 7 is_stmt 1       @ esp8266.c:274:7
	ldr	r0, [sp, #4]
	adds	r0, #1
	str	r0, [sp, #4]
.Ltmp73:
	.loc	1 272 3                 @ esp8266.c:272:3
	b	.LBB14_1
.LBB14_3:
	.loc	1 276 1                 @ esp8266.c:276:1
	add	sp, #8
	pop	{r7, pc}
.Ltmp74:
.Lfunc_end14:
	.size	ESP8266_OutString, .Lfunc_end14-ESP8266_OutString
	.cfi_endproc
	.cantunwind
	.fnend
                                        @ -- End function
	.section	.text.ESP8266_OutUDec,"ax",%progbits
	.hidden	ESP8266_OutUDec         @ -- Begin function ESP8266_OutUDec
	.globl	ESP8266_OutUDec
	.p2align	2
	.type	ESP8266_OutUDec,%function
	.code	16                      @ @ESP8266_OutUDec
	.thumb_func
ESP8266_OutUDec:
.Lfunc_begin15:
	.loc	1 283 0                 @ esp8266.c:283:0
	.fnstart
	.cfi_startproc
@ %bb.0:
	.save	{r7, lr}
	push	{r7, lr}
	.cfi_def_cfa_offset 8
	.cfi_offset lr, -4
	.cfi_offset r7, -8
	.pad	#16
	sub	sp, #16
	.cfi_def_cfa_offset 24
	str	r0, [sp, #12]
.Ltmp75:
	.loc	1 286 6 prologue_end    @ esp8266.c:286:6
	ldr	r0, [sp, #12]
.Ltmp76:
	.loc	1 286 6 is_stmt 0       @ esp8266.c:286:6
	cmp	r0, #10
	blo	.LBB15_2
	b	.LBB15_1
.LBB15_1:
.Ltmp77:
	.loc	1 287 21 is_stmt 1      @ esp8266.c:287:21
	ldr	r0, [sp, #12]
	movw	r1, #52429
	movt	r1, #52428
	.loc	1 287 22 is_stmt 0      @ esp8266.c:287:22
	umull	r0, r2, r0, r1
	lsrs	r2, r2, #3
	.loc	1 287 5                 @ esp8266.c:287:5
	str	r0, [sp, #8]            @ 4-byte Spill
	mov	r0, r2
	str	r1, [sp, #4]            @ 4-byte Spill
	bl	ESP8266_OutUDec
	.loc	1 288 9 is_stmt 1       @ esp8266.c:288:9
	ldr	r0, [sp, #12]
	.loc	1 288 10 is_stmt 0      @ esp8266.c:288:10
	ldr	r1, [sp, #4]            @ 4-byte Reload
	umull	r2, r3, r0, r1
	lsrs	r3, r3, #3
	add.w	r3, r3, r3, lsl #2
	sub.w	r0, r0, r3, lsl #1
	.loc	1 288 7                 @ esp8266.c:288:7
	str	r0, [sp, #12]
	.loc	1 289 3 is_stmt 1       @ esp8266.c:289:3
	b	.LBB15_2
.Ltmp78:
.LBB15_2:
	.loc	1 290 19                @ esp8266.c:290:19
	ldr	r0, [sp, #12]
	.loc	1 290 20 is_stmt 0      @ esp8266.c:290:20
	adds	r0, #48
	.loc	1 290 3                 @ esp8266.c:290:3
	uxtb	r0, r0
	bl	ESP8266_OutChar
	.loc	1 291 1 is_stmt 1       @ esp8266.c:291:1
	add	sp, #16
	pop	{r7, pc}
.Ltmp79:
.Lfunc_end15:
	.size	ESP8266_OutUDec, .Lfunc_end15-ESP8266_OutUDec
	.cfi_endproc
	.cantunwind
	.fnend
                                        @ -- End function
	.section	.text.DelayMs,"ax",%progbits
	.hidden	DelayMs                 @ -- Begin function DelayMs
	.globl	DelayMs
	.p2align	2
	.type	DelayMs,%function
	.code	16                      @ @DelayMs
	.thumb_func
DelayMs:
.Lfunc_begin16:
	.loc	1 298 0                 @ esp8266.c:298:0
	.fnstart
	.cfi_startproc
@ %bb.0:
	.pad	#8
	sub	sp, #8
	.cfi_def_cfa_offset 8
	str	r0, [sp, #4]
.Ltmp80:
	.loc	1 300 3 prologue_end    @ esp8266.c:300:3
	b	.LBB16_1
.LBB16_1:                               @ =>This Loop Header: Depth=1
                                        @     Child Loop BB16_3 Depth 2
	.loc	1 300 9 is_stmt 0       @ esp8266.c:300:9
	ldr	r0, [sp, #4]
	.loc	1 300 3                 @ esp8266.c:300:3
	cmp	r0, #0
	beq	.LBB16_6
	b	.LBB16_2
.LBB16_2:                               @   in Loop: Header=BB16_1 Depth=1
	.loc	1 0 3                   @ esp8266.c:0:3
	movw	r0, #6665
.Ltmp81:
	.loc	1 301 10 is_stmt 1      @ esp8266.c:301:10
	str	r0, [sp]
	.loc	1 302 5                 @ esp8266.c:302:5
	b	.LBB16_3
.LBB16_3:                               @   Parent Loop BB16_1 Depth=1
                                        @ =>  This Inner Loop Header: Depth=2
	.loc	1 302 11 is_stmt 0      @ esp8266.c:302:11
	ldr	r0, [sp]
	.loc	1 302 5                 @ esp8266.c:302:5
	cmp	r0, #0
	beq	.LBB16_5
	b	.LBB16_4
.LBB16_4:                               @   in Loop: Header=BB16_3 Depth=2
.Ltmp82:
	.loc	1 303 11 is_stmt 1      @ esp8266.c:303:11
	ldr	r0, [sp]
	subs	r0, #1
	str	r0, [sp]
.Ltmp83:
	.loc	1 302 5                 @ esp8266.c:302:5
	b	.LBB16_3
.LBB16_5:                               @   in Loop: Header=BB16_1 Depth=1
	.loc	1 305 6                 @ esp8266.c:305:6
	ldr	r0, [sp, #4]
	subs	r0, #1
	str	r0, [sp, #4]
.Ltmp84:
	.loc	1 300 3                 @ esp8266.c:300:3
	b	.LBB16_1
.LBB16_6:
	.loc	1 307 1                 @ esp8266.c:307:1
	add	sp, #8
	bx	lr
.Ltmp85:
.Lfunc_end16:
	.size	DelayMs, .Lfunc_end16-DelayMs
	.cfi_endproc
	.cantunwind
	.fnend
                                        @ -- End function
	.section	.text.ESP8266_Init,"ax",%progbits
	.hidden	ESP8266_Init            @ -- Begin function ESP8266_Init
	.globl	ESP8266_Init
	.p2align	2
	.type	ESP8266_Init,%function
	.code	16                      @ @ESP8266_Init
	.thumb_func
ESP8266_Init:
.Lfunc_begin17:
	.loc	1 327 0                 @ esp8266.c:327:0
	.fnstart
	.cfi_startproc
@ %bb.0:
	.save	{r7, lr}
	push	{r7, lr}
	.cfi_def_cfa_offset 8
	.cfi_offset lr, -4
	.cfi_offset r7, -8
	movw	r0, #58888
	movt	r0, #16399
.Ltmp86:
	.loc	1 328 21 prologue_end   @ esp8266.c:328:21
	ldr	r1, [r0]
	orr	r1, r1, #16
	str	r1, [r0]
	.loc	1 329 3                 @ esp8266.c:329:3
	b	.LBB17_1
.LBB17_1:                               @ =>This Inner Loop Header: Depth=1
	.loc	1 0 3 is_stmt 0         @ esp8266.c:0:3
	movw	r0, #59912
	movt	r0, #16399
	.loc	1 329 10                @ esp8266.c:329:10
	ldr	r0, [r0]
	.loc	1 329 3                 @ esp8266.c:329:3
	lsls	r0, r0, #27
	cmp	r0, #0
	bmi	.LBB17_3
	b	.LBB17_2
.LBB17_2:                               @   in Loop: Header=BB17_1 Depth=1
	b	.LBB17_1
.LBB17_3:
	.loc	1 0 3                   @ esp8266.c:0:3
	movw	r0, #17408
	movt	r0, #16386
	.loc	1 330 20 is_stmt 1      @ esp8266.c:330:20
	ldr	r1, [r0]
	orr	r1, r1, #10
	str	r1, [r0]
	.loc	1 331 20                @ esp8266.c:331:20
	ldr	r1, [r0]
	bic	r1, r1, #1
	str	r1, [r0]
	movw	r0, #17440
	movt	r0, #16386
	.loc	1 332 22                @ esp8266.c:332:22
	ldr	r1, [r0]
	bic	r1, r1, #11
	str	r1, [r0]
	movw	r0, #17692
	movt	r0, #16386
	.loc	1 333 20                @ esp8266.c:333:20
	ldr	r1, [r0]
	orr	r1, r1, #11
	str	r1, [r0]
	movw	r0, #17708
	movt	r0, #16386
	.loc	1 334 24                @ esp8266.c:334:24
	ldr	r1, [r0]
	movw	r2, #61695
	.loc	1 334 41 is_stmt 0      @ esp8266.c:334:41
	bics	r1, r2
	.loc	1 334 21                @ esp8266.c:334:21
	str	r1, [r0]
	movw	r0, #17704
	movt	r0, #16386
	.loc	1 335 22 is_stmt 1      @ esp8266.c:335:22
	ldr	r1, [r0]
	bic	r1, r1, #11
	str	r1, [r0]
	movs	r0, #2
	.loc	1 336 3                 @ esp8266.c:336:3
	bl	UART5_Init
	.loc	1 337 3                 @ esp8266.c:337:3
	bl	EnableInterrupts
	.loc	1 338 1                 @ esp8266.c:338:1
	pop	{r7, pc}
.Ltmp87:
.Lfunc_end17:
	.size	ESP8266_Init, .Lfunc_end17-ESP8266_Init
	.cfi_endproc
	.cantunwind
	.fnend
                                        @ -- End function
	.section	.text.ESP8266_Reset,"ax",%progbits
	.hidden	ESP8266_Reset           @ -- Begin function ESP8266_Reset
	.globl	ESP8266_Reset
	.p2align	2
	.type	ESP8266_Reset,%function
	.code	16                      @ @ESP8266_Reset
	.thumb_func
ESP8266_Reset:
.Lfunc_begin18:
	.loc	1 340 0                 @ esp8266.c:340:0
	.fnstart
	.cfi_startproc
@ %bb.0:
	.save	{r7, lr}
	push	{r7, lr}
	.cfi_def_cfa_offset 8
	.cfi_offset lr, -4
	.cfi_offset r7, -8
	.pad	#16
	sub	sp, #16
	.cfi_def_cfa_offset 24
	movw	r0, #16392
	movt	r0, #16386
	movs	r1, #0
.Ltmp88:
	.loc	1 345 7 prologue_end    @ esp8266.c:345:7
	str	r1, [r0]
	movw	r2, #5000
	.loc	1 346 3                 @ esp8266.c:346:3
	str	r0, [sp, #12]           @ 4-byte Spill
	mov	r0, r2
	str	r1, [sp, #8]            @ 4-byte Spill
	str	r2, [sp, #4]            @ 4-byte Spill
	bl	DelayMs
	movs	r0, #2
	.loc	1 347 7                 @ esp8266.c:347:7
	ldr	r1, [sp, #12]           @ 4-byte Reload
	str	r0, [r1]
	.loc	1 352 3                 @ esp8266.c:352:3
	ldr	r0, [sp, #4]            @ 4-byte Reload
	bl	DelayMs
	movw	r0, #16416
	movt	r0, #16386
	.loc	1 356 7                 @ esp8266.c:356:7
	ldr	r1, [sp, #8]            @ 4-byte Reload
	str	r1, [r0]
	.loc	1 357 1                 @ esp8266.c:357:1
	add	sp, #16
	pop	{r7, pc}
.Ltmp89:
.Lfunc_end18:
	.size	ESP8266_Reset, .Lfunc_end18-ESP8266_Reset
	.cfi_endproc
	.cantunwind
	.fnend
                                        @ -- End function
	.section	.text.ESP8266_SetupWiFi,"ax",%progbits
	.hidden	ESP8266_SetupWiFi       @ -- Begin function ESP8266_SetupWiFi
	.globl	ESP8266_SetupWiFi
	.p2align	2
	.type	ESP8266_SetupWiFi,%function
	.code	16                      @ @ESP8266_SetupWiFi
	.thumb_func
ESP8266_SetupWiFi:
.Lfunc_begin19:
	.loc	1 362 0                 @ esp8266.c:362:0
	.fnstart
	.cfi_startproc
@ %bb.0:
	.save	{r7, lr}
	push	{r7, lr}
	.cfi_def_cfa_offset 8
	.cfi_offset lr, -4
	.cfi_offset r7, -8
	.pad	#8
	sub	sp, #8
	.cfi_def_cfa_offset 16
.Ltmp90:
	.loc	1 373 3 prologue_end    @ esp8266.c:373:3
	b	.LBB19_1
.LBB19_1:                               @ =>This Inner Loop Header: Depth=1
	.loc	1 0 3 is_stmt 0         @ esp8266.c:0:3
	movw	r0, #16388
	movt	r0, #16386
	.loc	1 373 11                @ esp8266.c:373:11
	ldr	r0, [r0]
	.loc	1 373 3                 @ esp8266.c:373:3
	cmp	r0, #0
	bne	.LBB19_3
	b	.LBB19_2
.LBB19_2:                               @   in Loop: Header=BB19_1 Depth=1
	.loc	1 0 3                   @ esp8266.c:0:3
	mov.w	r0, #1000
.Ltmp91:
	.loc	1 377 5 is_stmt 1       @ esp8266.c:377:5
	bl	DelayMs
.Ltmp92:
	.loc	1 373 3                 @ esp8266.c:373:3
	b	.LBB19_1
.LBB19_3:
	.loc	1 379 3                 @ esp8266.c:379:3
	movw	r0, :lower16:auth
	movt	r0, :upper16:auth
	bl	ESP8266_OutString
	movs	r0, #44
	.loc	1 380 3                 @ esp8266.c:380:3
	str	r0, [sp, #4]            @ 4-byte Spill
	bl	ESP8266_OutChar
	.loc	1 381 3                 @ esp8266.c:381:3
	movw	r0, :lower16:ssid
	movt	r0, :upper16:ssid
	bl	ESP8266_OutString
	.loc	1 382 3                 @ esp8266.c:382:3
	ldr	r0, [sp, #4]            @ 4-byte Reload
	bl	ESP8266_OutChar
	.loc	1 383 3                 @ esp8266.c:383:3
	movw	r0, :lower16:pass
	movt	r0, :upper16:pass
	bl	ESP8266_OutString
	.loc	1 384 3                 @ esp8266.c:384:3
	ldr	r0, [sp, #4]            @ 4-byte Reload
	bl	ESP8266_OutChar
	movs	r0, #10
	.loc	1 385 3                 @ esp8266.c:385:3
	bl	ESP8266_OutChar
	.loc	1 410 3                 @ esp8266.c:410:3
	b	.LBB19_4
.LBB19_4:                               @ =>This Inner Loop Header: Depth=1
	.loc	1 0 3 is_stmt 0         @ esp8266.c:0:3
	movw	r0, #16388
	movt	r0, #16386
	.loc	1 410 9                 @ esp8266.c:410:9
	ldr	r0, [r0]
	.loc	1 410 3                 @ esp8266.c:410:3
	cmp	r0, #0
	beq	.LBB19_6
	b	.LBB19_5
.LBB19_5:                               @   in Loop: Header=BB19_4 Depth=1
	.loc	1 0 3                   @ esp8266.c:0:3
	mov.w	r0, #500
.Ltmp93:
	.loc	1 414 5 is_stmt 1       @ esp8266.c:414:5
	bl	DelayMs
.Ltmp94:
	.loc	1 410 3                 @ esp8266.c:410:3
	b	.LBB19_4
.LBB19_6:
	.loc	1 416 3                 @ esp8266.c:416:3
	b	.LBB19_7
.LBB19_7:                               @ =>This Inner Loop Header: Depth=1
	.loc	1 416 9 is_stmt 0       @ esp8266.c:416:9
	movw	r0, :lower16:RxMessage
	movt	r0, :upper16:RxMessage
	bl	ESP8266_GetMessage
	.loc	1 416 3                 @ esp8266.c:416:3
	cmp	r0, #0
	beq	.LBB19_9
	b	.LBB19_8
.LBB19_8:                               @   in Loop: Header=BB19_7 Depth=1
	b	.LBB19_7
.LBB19_9:
	.loc	1 421 3 is_stmt 1       @ esp8266.c:421:3
	bl	Rx5Fifo_Init
	movw	r0, #16416
	movt	r0, #16386
	movs	r1, #8
	.loc	1 430 7                 @ esp8266.c:430:7
	str	r1, [r0]
	.loc	1 431 1                 @ esp8266.c:431:1
	add	sp, #8
	pop	{r7, pc}
.Ltmp95:
.Lfunc_end19:
	.size	ESP8266_SetupWiFi, .Lfunc_end19-ESP8266_SetupWiFi
	.cfi_endproc
	.cantunwind
	.fnend
                                        @ -- End function
	.hidden	ssid                    @ @ssid
	.type	ssid,%object
	.section	.data.ssid,"aw",%progbits
	.globl	ssid
ssid:
	.asciz	"KevinPC\000\000\000\000\000\000\000\000\000\000\000\000\000\000\000\000\000\000\000\000\000\000\000\000"
	.size	ssid, 32

	.hidden	pass                    @ @pass
	.type	pass,%object
	.section	.data.pass,"aw",%progbits
	.globl	pass
pass:
	.asciz	"Wasd1234\000\000\000\000\000\000\000\000\000\000\000\000\000\000\000\000\000\000\000\000\000\000\000"
	.size	pass, 32

	.hidden	auth                    @ @auth
	.type	auth,%object
	.section	.data.auth,"aw",%progbits
	.globl	auth
auth:
	.asciz	"FKPEEfrIwKts5Hcdo106ebrva1ldhFBW\000\000\000\000\000\000\000\000\000\000\000\000\000\000\000\000\000\000\000\000\000\000\000\000\000\000\000\000\000\000\000"
	.size	auth, 64

	.hidden	Rx5PutJ                 @ @Rx5PutJ
	.type	Rx5PutJ,%object
	.section	.bss.Rx5PutJ,"aw",%nobits
	.globl	Rx5PutJ
	.p2align	2
Rx5PutJ:
	.long	0                       @ 0x0
	.size	Rx5PutJ, 4

	.hidden	Rx5GetI                 @ @Rx5GetI
	.type	Rx5GetI,%object
	.section	.bss.Rx5GetI,"aw",%nobits
	.globl	Rx5GetI
	.p2align	2
Rx5GetI:
	.long	0                       @ 0x0
	.size	Rx5GetI, 4

	.hidden	Rx5PutI                 @ @Rx5PutI
	.type	Rx5PutI,%object
	.section	.bss.Rx5PutI,"aw",%nobits
	.globl	Rx5PutI
	.p2align	2
Rx5PutI:
	.long	0                       @ 0x0
	.size	Rx5PutI, 4

	.hidden	Rx5Fifo                 @ @Rx5Fifo
	.type	Rx5Fifo,%object
	.section	.bss.Rx5Fifo,"aw",%nobits
	.globl	Rx5Fifo
Rx5Fifo:
	.zero	512
	.size	Rx5Fifo, 512

	.hidden	Tx5GetI                 @ @Tx5GetI
	.type	Tx5GetI,%object
	.section	.bss.Tx5GetI,"aw",%nobits
	.globl	Tx5GetI
	.p2align	2
Tx5GetI:
	.long	0                       @ 0x0
	.size	Tx5GetI, 4

	.hidden	Tx5PutI                 @ @Tx5PutI
	.type	Tx5PutI,%object
	.section	.bss.Tx5PutI,"aw",%nobits
	.globl	Tx5PutI
	.p2align	2
Tx5PutI:
	.long	0                       @ 0x0
	.size	Tx5PutI, 4

	.type	Tx5Fifo,%object         @ @Tx5Fifo
	.section	.bss.Tx5Fifo,"aw",%nobits
Tx5Fifo:
	.zero	256
	.size	Tx5Fifo, 256

	.hidden	RxMessage               @ @RxMessage
	.type	RxMessage,%object
	.section	.bss.RxMessage,"aw",%nobits
	.globl	RxMessage
RxMessage:
	.zero	64
	.size	RxMessage, 64

	.section	".note.GNU-stack","",%progbits
	.eabi_attribute	30, 6	@ Tag_ABI_optimization_goals
	.ARM_attribute	16, 1	@ Tag_AV_eba