	.text
	.syntax unified
	.eabi_attribute	67, "2.09"	@ Tag_conformance
	.cpu	cortex-m4
	.eabi_attribute	6, 13	@ Tag_CPU_arch
	.eabi_attribute	7, 77	@ Tag_CPU_arch_profile
	.eabi_attribute	8, 0	@ Tag_ARM_ISA_use
	.eabi_attribute	9, 2	@ Tag_THUMB_ISA_use
	.eabi_attribute	34, 1	@ Tag_CPU_unaligned_access
	.eabi_attribute	17, 1	@ Tag_ABI_PCS_GOT_use
	.eabi_attribute	20, 2	@ Tag_ABI_FP_denormal
	.eabi_attribute	21, 0	@ Tag_ABI_FP_exceptions
	.eabi_attribute	23, 1	@ Tag_ABI_FP_number_model
	.eabi_attribute	24, 1	@ Tag_ABI_align_needed
	.eabi_attribute	25, 1	@ Tag_ABI_align_preserved
	.eabi_attribute	38, 1	@ Tag_ABI_FP_16bit_format
	.eabi_attribute	18, 2	@ Tag_ABI_PCS_wchar_t
	.eabi_attribute	26, 1	@ Tag_ABI_enum_size
	.eabi_attribute	14, 0	@ Tag_ABI_PCS_R9_use
	.file	"system_TM4C123.c"
	.file	1 "C:\\" "Keil_v5\\ARM\\ARMCLANG\\Bin\\..\\include\\stdint.h"
	.file	2 "C:\\Users\\kcao3\\OneDrive\\Documents\\445L\\EE445L-SP22-Lab8\\SW" "RTE/Device/TM4C123GH6PM/system_TM4C123.c"
	.file	3 "C:/Users/kcao3/AppData/Local/Arm/Packs/Keil/TM4C_DFP/1.1.0/Device/Include/TM4C123" "TM4C123GH6PM.h"
	.section	.text.SystemCoreClockUpdate,"ax",%progbits
	.hidden	SystemCoreClockUpdate   @ -- Begin function SystemCoreClockUpdate
	.globl	SystemCoreClockUpdate
	.p2align	2
	.type	SystemCoreClockUpdate,%function
	.code	16                      @ @SystemCoreClockUpdate
	.thumb_func
SystemCoreClockUpdate:
.Lfunc_begin0:
	.loc	2 523 0                 @ RTE/Device/TM4C123GH6PM/system_TM4C123.c:523:0
	.fnstart
	.cfi_sections .debug_frame
	.cfi_startproc
@ %bb.0:
	.save	{r4, r5, r6, lr}
	push	{r4, r5, r6, lr}
	.cfi_def_cfa_offset 16
	.cfi_offset lr, -4
	.cfi_offset r6, -8
	.cfi_offset r5, -12
	.cfi_offset r4, -16
	ldr	r0, __arm_cp.0_0
.Ltmp0:
	.loc	2 527 20 prologue_end   @ RTE/Device/TM4C123GH6PM/system_TM4C123.c:527:20
	ldr	r4, [r0]
.Ltmp1:
	@DEBUG_VALUE: SystemCoreClockUpdate:rcc <- $r4
	.loc	2 528 20                @ RTE/Device/TM4C123GH6PM/system_TM4C123.c:528:20
	ldr	r5, [r0, #16]
.Ltmp2:
	@DEBUG_VALUE: SystemCoreClockUpdate:rcc2 <- $r5
	.loc	2 531 9                 @ RTE/Device/TM4C123GH6PM/system_TM4C123.c:531:9
	cmp.w	r5, #-1
	ble	.LBB0_3
.Ltmp3:
@ %bb.1:
	@DEBUG_VALUE: SystemCoreClockUpdate:rcc2 <- $r5
	@DEBUG_VALUE: SystemCoreClockUpdate:rcc <- $r4
	.loc	2 547 15                @ RTE/Device/TM4C123GH6PM/system_TM4C123.c:547:15
	ands	r5, r4, #2048
.Ltmp4:
	.loc	2 547 11 is_stmt 0      @ RTE/Device/TM4C123GH6PM/system_TM4C123.c:547:11
	beq	.LBB0_5
.Ltmp5:
@ %bb.2:
	@DEBUG_VALUE: SystemCoreClockUpdate:rcc <- $r4
	.loc	2 548 48 is_stmt 1      @ RTE/Device/TM4C123GH6PM/system_TM4C123.c:548:48
	ubfx	r0, r4, #6, #5
	.loc	2 548 66 is_stmt 0      @ RTE/Device/TM4C123GH6PM/system_TM4C123.c:548:66
	ubfx	r1, r4, #4, #2
	.loc	2 548 27                @ RTE/Device/TM4C123GH6PM/system_TM4C123.c:548:27
	bl	getOscClk
	b	.LBB0_6
.Ltmp6:
.LBB0_3:
	@DEBUG_VALUE: SystemCoreClockUpdate:rcc2 <- $r5
	@DEBUG_VALUE: SystemCoreClockUpdate:rcc <- $r4
	.loc	2 533 16 is_stmt 1      @ RTE/Device/TM4C123GH6PM/system_TM4C123.c:533:16
	ands	r6, r5, #2048
.Ltmp7:
	.loc	2 533 11 is_stmt 0      @ RTE/Device/TM4C123GH6PM/system_TM4C123.c:533:11
	beq	.LBB0_10
.Ltmp8:
@ %bb.4:
	@DEBUG_VALUE: SystemCoreClockUpdate:rcc2 <- $r5
	@DEBUG_VALUE: SystemCoreClockUpdate:rcc <- $r4
	.loc	2 534 48 is_stmt 1      @ RTE/Device/TM4C123GH6PM/system_TM4C123.c:534:48
	ubfx	r0, r4, #6, #4
	.loc	2 534 67 is_stmt 0      @ RTE/Device/TM4C123GH6PM/system_TM4C123.c:534:67
	ubfx	r1, r5, #4, #3
	.loc	2 534 27                @ RTE/Device/TM4C123GH6PM/system_TM4C123.c:534:27
	bl	getOscClk
	b	.LBB0_11
.Ltmp9:
.LBB0_5:
	@DEBUG_VALUE: SystemCoreClockUpdate:rcc <- $r4
	.loc	2 0 27                  @ RTE/Device/TM4C123GH6PM/system_TM4C123.c:0:27
	ldr	r0, __arm_cp.0_1
.Ltmp10:
.LBB0_6:
	@DEBUG_VALUE: SystemCoreClockUpdate:rcc <- $r4
	ldr	r1, __arm_cp.0_2
.Ltmp11:
	.loc	2 553 11 is_stmt 1      @ RTE/Device/TM4C123GH6PM/system_TM4C123.c:553:11
	lsls	r2, r4, #9
.Ltmp12:
	.loc	2 0 0 is_stmt 0         @ RTE/Device/TM4C123GH6PM/system_TM4C123.c:0:0
	str	r0, [r1]
.Ltmp13:
	.loc	2 553 11                @ RTE/Device/TM4C123GH6PM/system_TM4C123.c:553:11
	bpl	.LBB0_12
.Ltmp14:
@ %bb.7:
	@DEBUG_VALUE: SystemCoreClockUpdate:rcc <- $r4
	.loc	2 0 0                   @ RTE/Device/TM4C123GH6PM/system_TM4C123.c:0:0
	ubfx	r2, r4, #23, #4
	adds	r2, #1
	udiv	r0, r0, r2
.Ltmp15:
	.loc	2 555 13 is_stmt 1      @ RTE/Device/TM4C123GH6PM/system_TM4C123.c:555:13
	cbnz	r5, .LBB0_9
.Ltmp16:
.LBB0_8:
	@DEBUG_VALUE: SystemCoreClockUpdate:rcc <- $r4
	.loc	2 0 0 is_stmt 0         @ RTE/Device/TM4C123GH6PM/system_TM4C123.c:0:0
	lsrs	r0, r0, #1
.Ltmp17:
.LBB0_9:
	@DEBUG_VALUE: SystemCoreClockUpdate:rcc <- $r4
	str	r0, [r1]
.Ltmp18:
	.loc	2 563 1 is_stmt 1       @ RTE/Device/TM4C123GH6PM/system_TM4C123.c:563:1
	pop	{r4, r5, r6, pc}
.Ltmp19:
.LBB0_10:
	@DEBUG_VALUE: SystemCoreClockUpdate:rcc2 <- $r5
	@DEBUG_VALUE: SystemCoreClockUpdate:rcc <- $r4
	.loc	2 0 1 is_stmt 0         @ RTE/Device/TM4C123GH6PM/system_TM4C123.c:0:1
	ldr	r0, __arm_cp.0_1
.Ltmp20:
.LBB0_11:
	@DEBUG_VALUE: SystemCoreClockUpdate:rcc2 <- $r5
	@DEBUG_VALUE: SystemCoreClockUpdate:rcc <- $r4
	ldr	r1, __arm_cp.0_2
.Ltmp21:
	.loc	2 538 11 is_stmt 1      @ RTE/Device/TM4C123GH6PM/system_TM4C123.c:538:11
	lsls	r2, r4, #9
.Ltmp22:
	.loc	2 0 0 is_stmt 0         @ RTE/Device/TM4C123GH6PM/system_TM4C123.c:0:0
	str	r0, [r1]
.Ltmp23:
	.loc	2 538 11                @ RTE/Device/TM4C123GH6PM/system_TM4C123.c:538:11
	bmi	.LBB0_13
.Ltmp24:
.LBB0_12:
	@DEBUG_VALUE: SystemCoreClockUpdate:rcc <- $r4
	.loc	2 563 1 is_stmt 1       @ RTE/Device/TM4C123GH6PM/system_TM4C123.c:563:1
	pop	{r4, r5, r6, pc}
.Ltmp25:
.LBB0_13:
	@DEBUG_VALUE: SystemCoreClockUpdate:rcc2 <- $r5
	@DEBUG_VALUE: SystemCoreClockUpdate:rcc <- $r4
	.loc	2 0 0 is_stmt 0         @ RTE/Device/TM4C123GH6PM/system_TM4C123.c:0:0
	ubfx	r2, r5, #23, #6
	adds	r2, #1
	udiv	r0, r0, r2
.Ltmp26:
	.loc	2 539 13 is_stmt 1      @ RTE/Device/TM4C123GH6PM/system_TM4C123.c:539:13
	cmp	r6, #0
	beq	.LBB0_8
	b	.LBB0_9
.Ltmp27:
	.p2align	2
@ %bb.14:
	.loc	2 0 13 is_stmt 0        @ RTE/Device/TM4C123GH6PM/system_TM4C123.c:0:13
__arm_cp.0_0:
	.long	1074782304              @ 0x400fe060
.Lcpi_end0:
	.size	__arm_cp.0_0, .Lcpi_end0-__arm_cp.0_0
__arm_cp.0_1:
	.long	400000000               @ 0x17d78400
.Lcpi_end1:
	.size	__arm_cp.0_1, .Lcpi_end1-__arm_cp.0_1
__arm_cp.0_2:
	.long	SystemCoreClock
.Lcpi_end2:
	.size	__arm_cp.0_2, .Lcpi_end2-__arm_cp.0_2
.Lfunc_end0:
	.size	SystemCoreClockUpdate, .Lfunc_end0-SystemCoreClockUpdate
	.cfi_endproc
	.cantunwind
	.fnend
                                        @ -- End function
	.section	.text.getOscClk,"ax",%progbits
	.p2align	2               @ -- Begin function getOscClk
	.type	getOscClk,%function
	.code	16                      @ @getOscClk
	.thumb_func
getOscClk:
.Lfunc_begin1:
	.loc	2 431 0 is_stmt 1       @ RTE/Device/TM4C123GH6PM/system_TM4C123.c:431:0
	.fnstart
	.cfi_startproc
@ %bb.0:
	@DEBUG_VALUE: getOscClk:xtal <- $r0
	@DEBUG_VALUE: getOscClk:oscSrc <- $r1
	@DEBUG_VALUE: getOscClk:oscSrc <- $r1
	@DEBUG_VALUE: getOscClk:oscClk <- 16000000
	.loc	2 434 3 prologue_end    @ RTE/Device/TM4C123GH6PM/system_TM4C123.c:434:3
	cmp	r1, #3
	beq	.LBB1_5
.Ltmp28:
@ %bb.1:
	@DEBUG_VALUE: getOscClk:oscClk <- 16000000
	@DEBUG_VALUE: getOscClk:oscSrc <- $r1
	@DEBUG_VALUE: getOscClk:xtal <- $r0
	cmp	r1, #2
	beq	.LBB1_7
.Ltmp29:
@ %bb.2:
	@DEBUG_VALUE: getOscClk:oscClk <- 16000000
	@DEBUG_VALUE: getOscClk:oscSrc <- $r1
	@DEBUG_VALUE: getOscClk:xtal <- $r0
	.loc	2 0 3 is_stmt 0         @ RTE/Device/TM4C123GH6PM/system_TM4C123.c:0:3
	mov	r2, r0
.Ltmp30:
	@DEBUG_VALUE: getOscClk:xtal <- $r2
	ldr	r0, __arm_cp.1_0
	.loc	2 434 3                 @ RTE/Device/TM4C123GH6PM/system_TM4C123.c:434:3
	cbnz	r1, .LBB1_6
.Ltmp31:
@ %bb.3:
	@DEBUG_VALUE: getOscClk:xtal <- $r2
	@DEBUG_VALUE: getOscClk:oscClk <- 16000000
	@DEBUG_VALUE: getOscClk:oscSrc <- $r1
	.loc	2 436 7 is_stmt 1       @ RTE/Device/TM4C123GH6PM/system_TM4C123.c:436:7
	cmp	r2, #23
	bhs	.LBB1_6
.Ltmp32:
@ %bb.4:
	@DEBUG_VALUE: getOscClk:xtal <- $r2
	@DEBUG_VALUE: getOscClk:oscClk <- 16000000
	@DEBUG_VALUE: getOscClk:oscSrc <- $r1
	ldr	r0, __arm_cp.1_2
	ldr.w	r0, [r0, r2, lsl #2]
.Ltmp33:
	@DEBUG_VALUE: getOscClk:oscClk <- $r0
	.loc	2 0 0 is_stmt 0         @ RTE/Device/TM4C123GH6PM/system_TM4C123.c:0:0
	bx	lr
.Ltmp34:
.LBB1_5:
	@DEBUG_VALUE: getOscClk:oscClk <- 16000000
	@DEBUG_VALUE: getOscClk:oscSrc <- $r1
	@DEBUG_VALUE: getOscClk:xtal <- $r0
	movw	r0, #30000
.Ltmp35:
	@DEBUG_VALUE: getOscClk:oscClk <- 30000
.LBB1_6:
	@DEBUG_VALUE: getOscClk:oscSrc <- $r1
	@DEBUG_VALUE: getOscClk:oscClk <- $r0
	bx	lr
.Ltmp36:
.LBB1_7:
	@DEBUG_VALUE: getOscClk:oscClk <- 16000000
	@DEBUG_VALUE: getOscClk:oscSrc <- $r1
	@DEBUG_VALUE: getOscClk:xtal <- $r0
	ldr	r0, __arm_cp.1_1
.Ltmp37:
	@DEBUG_VALUE: getOscClk:oscClk <- 4000000
	@DEBUG_VALUE: getOscClk:oscClk <- $r0
	bx	lr
.Ltmp38:
	.p2align	2
@ %bb.8:
__arm_cp.1_0:
	.long	16000000                @ 0xf42400
.Lcpi_end3:
	.size	__arm_cp.1_0, .Lcpi_end3-__arm_cp.1_0
__arm_cp.1_1:
	.long	4000000                 @ 0x3d0900
.Lcpi_end4:
	.size	__arm_cp.1_1, .Lcpi_end4-__arm_cp.1_1
__arm_cp.1_2:
	.long	.Lswitch.table.getOscClk
.Lcpi_end5:
	.size	__arm_cp.1_2, .Lcpi_end5-__arm_cp.1_2
.Lfunc_end1:
	.size	getOscClk, .Lfunc_end1-getOscClk
	.cfi_endproc
	.cantunwind
	.fnend
                                        @ -- End function
	.section	.text.SystemInit,"ax",%progbits
	.hidden	SystemInit              @ -- Begin function SystemInit
	.globl	SystemInit
	.p2align	2
	.type	SystemInit,%function
	.code	16                      @ @SystemInit
	.thumb_func
SystemInit:
.Lfunc_begin2:
	.loc	2 575 0 is_stmt 1       @ RTE/Device/TM4C123GH6PM/system_TM4C123.c:575:0
	.fnstart
	.cfi_startproc
@ %bb.0:
	ldr	r0, __arm_cp.2_0
	ldr	r1, __arm_cp.2_1
.Ltmp39:
	.loc	2 587 18 prologue_end   @ RTE/Device/TM4C123GH6PM/system_TM4C123.c:587:18
	str	r1, [r0, #16]
	ldr	r1, __arm_cp.2_2
	.loc	2 588 18                @ RTE/Device/TM4C123GH6PM/system_TM4C123.c:588:18
	str	r1, [r0]
	ldr	r1, __arm_cp.2_3
	.loc	2 590 18                @ RTE/Device/TM4C123GH6PM/system_TM4C123.c:590:18
	add.w	r2, r1, #8192
	str	r2, [r0]
	ldr	r2, __arm_cp.2_4
	.loc	2 591 18                @ RTE/Device/TM4C123GH6PM/system_TM4C123.c:591:18
	add.w	r3, r2, #8192
	str	r3, [r0, #16]
.Ltmp40:
	@DEBUG_VALUE: SystemInit:i <- undef
	.loc	2 594 18                @ RTE/Device/TM4C123GH6PM/system_TM4C123.c:594:18
	str	r1, [r0]
	ldr	r1, __arm_cp.2_5
	@DEBUG_VALUE: SystemInit:i <- undef
	.loc	2 595 18                @ RTE/Device/TM4C123GH6PM/system_TM4C123.c:595:18
	str	r2, [r0, #16]
	.loc	2 598 18                @ RTE/Device/TM4C123GH6PM/system_TM4C123.c:598:18
	add.w	r2, r1, #2048
	str	r2, [r0]
.Ltmp41:
.LBB2_1:                                @ =>This Inner Loop Header: Depth=1
	.loc	2 602 23                @ RTE/Device/TM4C123GH6PM/system_TM4C123.c:602:23
	ldr	r2, [r0, #-16]
	.loc	2 602 7 is_stmt 0       @ RTE/Device/TM4C123GH6PM/system_TM4C123.c:602:7
	lsls	r2, r2, #25
	bpl	.LBB2_1
.Ltmp42:
@ %bb.2:
	.loc	2 605 18 is_stmt 1      @ RTE/Device/TM4C123GH6PM/system_TM4C123.c:605:18
	str	r1, [r0]
	mov.w	r1, #25165824
	.loc	2 606 18                @ RTE/Device/TM4C123GH6PM/system_TM4C123.c:606:18
	str	r1, [r0, #16]
.Ltmp43:
	@DEBUG_VALUE: SystemInit:i <- undef
	.loc	2 610 1                 @ RTE/Device/TM4C123GH6PM/system_TM4C123.c:610:1
	bx	lr
.Ltmp44:
	.p2align	2
@ %bb.3:
	.loc	2 0 1 is_stmt 0         @ RTE/Device/TM4C123GH6PM/system_TM4C123.c:0:1
__arm_cp.2_0:
	.long	1074782304              @ 0x400fe060
.Lcpi_end6:
	.size	__arm_cp.2_0, .Lcpi_end6-__arm_cp.2_0
__arm_cp.2_1:
	.long	125839376               @ 0x7802810
.Lcpi_end7:
	.size	__arm_cp.2_1, .Lcpi_end7-__arm_cp.2_1
__arm_cp.2_2:
	.long	126761681               @ 0x78e3ad1
.Lcpi_end8:
	.size	__arm_cp.2_2, .Lcpi_end8-__arm_cp.2_2
__arm_cp.2_3:
	.long	27135298                @ 0x19e0d42
.Lcpi_end9:
	.size	__arm_cp.2_3, .Lcpi_end9-__arm_cp.2_3
__arm_cp.2_4:
	.long	25167872                @ 0x1800800
.Lcpi_end10:
	.size	__arm_cp.2_4, .Lcpi_end10-__arm_cp.2_4
__arm_cp.2_5:
	.long	31327554                @ 0x1de0542
.Lcpi_end11:
	.size	__arm_cp.2_5, .Lcpi_end11-__arm_cp.2_5
.Lfunc_end2:
	.size	SystemInit, .Lfunc_end2-SystemInit
	.cfi_endproc
	.cantunwind
	.fnend
                                        @ -- End function
	.hidden	SystemCoreClock         @ @SystemCoreClock
	.type	SystemCoreClock,%object
	.section	.data.SystemCoreClock,"aw",%progbits
	.globl	SystemCoreClock
	.p2align	2
SystemCoreClock:
	.long	50000000                @ 0x2faf080
	.size	SystemCoreClock, 4

	.type	.Lswitch.table.getOscClk,%object @ @switch.table.getOscClk
	.section	.rodata..Lswitch.table.getOscClk,"a",%progbits
	.p2align	2
.Lswitch.table.getOscClk:
	.long	1000000                 @ 0xf4240
	.long	1843200                 @ 0x1c2000
	.long	2000000                 @ 0x1e8480
	.long	2457600                 @ 0x258000
	.long	3579545                 @ 0x369e99
	.long	3686400                 @ 0x384000
	.long	4000000                 @ 0x3d0900
	.long	4096000                 @ 0x3e8000
	.long	4915200                 @ 0x4b0000
	.long	5000000                 @ 0x4c4b40
	.long	5120000                 @ 0x4e2000
	.long	6000000                 @ 0x5b8d80
	.long	6144000                 @ 0x5dc000
	.long	7372800                 @ 0x708000
	.long	8000000                 @ 0x7a1200
	.long	8192000                 @ 0x7d0000
	.long	10000000                @ 0x989680
	.long	12000000                @ 0xb71b00
	.long	12288000                @ 0xbb8000
	.long	13560000                @ 0xcee8c0
	.long	14318180                @ 0xda7a64
	.long	16000000                @ 0xf42400
	.long	16384000                @ 0xfa0000
	.size	.Lswitch.table.getOscClk, 92

	.section	".note.GNU-stack","",%progbits
	.eabi_attribute	30, 4	@ Tag_ABI_optimization_goals
	.ARM_attribute	16, 1	@ Tag_AV_eba